******************************************************************************
                  TI ARM Linker PC v20.2.7                     
******************************************************************************
>> Linked Wed Jun  5 12:17:46 2024

OUTPUT FILE NAME:   <out_of_box_6843_isk_mss.xer4f>
ENTRY POINT SYMBOL: "_c_int00"  address: 0001b15c


MEMORY CONFIGURATION

         name            origin    length      used     unused   attr    fill
----------------------  --------  ---------  --------  --------  ----  --------
PAGE 0:
  VECTORS               00000000   00000100  0000003c  000000c4     X
  PROG_RAM              00000100   0007ff00  00022efe  0005d002  R  X
  DATA_RAM              08000000   00030000  0000f994  0002066c  RW  
  L3_RAM                51000000   000c0000  000c0000  00000000  RW  
  HWA_RAM               52030000   00010000  00000000  00010000  RW  
  HS_RAM                52080000   00008000  00000000  00008000  RW  

PAGE 1:
  L3_RAM                51000000   000c0000  00000000  000c0000  RW  


SEGMENT ALLOCATION MAP

run origin  load origin   length   init length attrs members
----------  ----------- ---------- ----------- ----- -------
00000000    00000000    0000003c   0000003c    r--
  00000000    00000000    0000003c   0000003c    r-- .vecs
00000100    00000100    00022f08   00022f08    r-x
  00000100    00000100    000217a2   000217a2    r-x .text
  000218a8    000218a8    000011d4   000011d4    r-- .const
  00022a80    00022a80    00000588   00000588    r-- .cinit
08000000    08000000    0000f998   00000000    rw-
  08000000    08000000    00008000   00000000    rw- systemHeap
  08008000    08008000    00003c88   00000000    rw- .bss
  0800bc88    0800bc88    00001d0c   00000000    rw- .data
  0800d994    0800d994    00001000   00000000    rw- .dpcLocalRam
  0800e998    0800e998    00000800   00000000    rw- .myFiqStack
  0800f198    0800f198    00000800   00000000    rw- .stack
51000000    51000000    000c0000   00000000    rw-
  51000000    51000000    000c0000   00000000    rw- .l3ram


SECTION ALLOCATION MAP

 output                                  attributes/
section   page    origin      length       input sections
--------  ----  ----------  ----------   ----------------
systemHeap 
*          0    08000000    00008000     UNINITIALIZED
                  08000000    00008000     mmw_mss_per4ft.oer4ft (systemHeap)

.dpcLocalRam 
*          0    0800d994    00001000     UNINITIALIZED
                  0800d994    00001000     mss_main.oer4f (.dpcLocalRam)

.vecs      0    00000000    0000003c     
                  00000000    0000003c     mmw_mss_per4ft.oer4ft (.vecs)

.text      0    00000100    000217a2     
                  00000100    00000b2c     rtsv7R4_T_le_v3D16_eabi.lib : _scanfi.c.obj (.text:__TI_scanfi)
                  00000c2c    00000a46                                 : _printfi.c.obj (.text:__TI_printfi)
                  00001672    00000002     libadcbuf_xwr68xx.aer4f : adcbuf_mmwave.oer4f (.text:ADCBUF_MMWave_init)
                  00001674    0000099c     mss_main.oer4f (.text:MmwDemo_dataPathConfig)
                  00002010    0000070e     mmw_cli.oer4f (.text:MmwDemo_CLIInit)
                  0000271e    00000002     libhwa_xwr68xx.aer4f : hwa.oer4f (.text:HWA_init)
                  00002720    000006e8     mss_main.oer4f (.text:MmwDemo_initTask)
                  00002e08    00000658     libhwa_xwr68xx.aer4f : hwa.oer4f (.text:HWA_configParamSet)
                  00003460    00000604     rtsv7R4_T_le_v3D16_eabi.lib : k_rem_pio2.c.obj (.text:__kernel_rem_pio2)
                  00003a64    0000059e     mss_main.oer4f (.text:MmwDemo_openSensor)
                  00004002    00000002     libmmwave_xwr68xx.aer4f : mmwave_link.oer4f (.text:MMWave_maskHostIRQ)
                  00004004    00000564     librangeproc_hwa_xwr68xx.aer4f : rangeprochwa.oer4f (.text:DPU_RangeProcHWA_process)
                  00004568    00000008     libosal_xwr68xx.aer4f : HwiP_tirtos.oer4f (.text:HwiP_disable)
                  00004570    000004e1     sysbios.aer4ft : BIOS.obj (.text:xdc_runtime_System_doPrint__I)
                  00004a51    00000001     --HOLE-- [fill = 0]
                  00004a52    00000002     libqspiflash_xwr68xx.aer4f : qspiflash.oer4f (.text:QSPIFlash_init)
                  00004a54    000004d4     mss_main.oer4f (.text:MmwDemo_handleObjectDetResult)
                  00004f28    000004a8     libadcbuf_xwr68xx.aer4f : adcbuf_mmwave.oer4f (.text:ADCBUF_MMWave_control)
                  000053d0    0000043c     librangeproc_hwa_xwr68xx.aer4f : rangeprochwa.oer4f (.text:DPU_RangeProcHWA_config)
                  0000580c    0000043c     mmwdemo_rfparser.oer4f (.text:MmwDemo_RFParser_parseCtrlConfig)
                  00005c48    00000410     libcli_xwr68xx.aer4f : cli_mmwave.oer4f (.text:CLI_MMWaveVersion)
                  00006058    000003fd     mmw_cli.oer4f (.text:MmwDemo_CLISensorStart)
                  00006455    00000001     --HOLE-- [fill = 0]
                  00006456    00000002     libqspi_xwr68xx.aer4f : qspi.oer4f (.text:QSPI_init)
                  00006458    000003f4     rtsv7R4_T_le_v3D16_eabi.lib : s_cos.c.obj (.text:cos)
                  0000684c    000003e8                                 : strtod.c.obj (.text:strtod)
                  00006c34    000003e4     mss_main.oer4f (.text:MmwDemo_transmitProcessedOutput)
                  00007018    00000334     mss_main.oer4f (.text:MmwDemo_DPC_ObjectDetection_reportFxn)
                  0000734c    00000004     libosal_xwr68xx.aer4f : HwiP_tirtos.oer4f (.text:HwiP_disableInterrupt)
                  00007350    0000032c     sysbios.aer4ft : BIOS.obj (.text:ti_sysbios_knl_Semaphore_pend__E)
                  0000767c    00000328     mss_main.oer4f (.text:MmwDemo_processPendingDynamicCfgCommands)
                  000079a4    00000314     libsoc_xwr68xx.aer4f : soc_xwr68xx_mss.oer4f (.text:SOC_deviceInit)
                  00007cb8    00000304     librangeproc_hwa_xwr68xx.aer4f : rangeprochwa.oer4f (.text:rangeProcHWA_ConfigEDMA_DataOut_nonInterleave)
                  00007fbc    000002f8     libcbuff_xwr68xx.aer4f : cbuff.oer4f (.text:CBUFF_createSession)
                  000082b4    0000000c     libedma_xwr68xx.aer4f : edma_low_level.oer4f (.text:EDMA3ChannelToParamMap)
                  000082c0    000002d0     sysbios.aer4ft : BIOS.obj (.text:ti_sysbios_knl_Task_Instance_finalize__E)
                  00008590    000002c4     libhwa_xwr68xx.aer4f : hwa.oer4f (.text:HWA_configCommon)
                  00008854    000002b4     rtsv7R4_T_le_v3D16_eabi.lib : ull_div32.asm.obj (.text)
                  00008b08    00000008     libmmwave_xwr68xx.aer4f : mmwave.oer4f (.text:MMWave_decodeErrorLevel)
                  00008b10    000002a4     sysbios.aer4ft : BIOS.obj (.text:ti_sysbios_heaps_HeapMem_freeUnprotected__E)
                  00008db4    00000284     libmmwave_xwr68xx.aer4f : mmwave_dualcore.oer4f (.text:MMWave_deviceExecuteFxn)
                  00009038    00000280     libhsiheader_xwr68xx.aer4f : hsiheader.oer4f (.text:HSIHeader_createHeader)
                  000092b8    00000008     libmmwave_xwr68xx.aer4f : mmwave_link.oer4f (.text:MMWave_mboxCallbackFxn)
                  000092c0    00000280     sysbios.aer4ft : BIOS.obj (.text:ti_sysbios_family_arm_exc_Exception_excDumpContext__I)
                  00009540    00000278     mss_main.oer4f (.text:MmwDemo_sensorStopEpilog)
                  000097b8    0000026c     libqspiflash_xwr68xx.aer4f : qspiflash.oer4f (.text:QSPIFlash_open)
                  00009a24    00000264     libcbuff_xwr68xx.aer4f : cbuff.oer4f (.text:CBUFF_init)
                  00009c88    00000260     libmailbox_xwr68xx.aer4f : mailbox.oer4f (.text:Mailbox_open)
                  00009ee8    00000254     libcli_xwr68xx.aer4f : cli_mmwave.oer4f (.text:CLI_MMWaveProfileCfg)
                  0000a13c    00000248     rtsv7R4_T_le_v3D16_eabi.lib : _printfi.c.obj (.text:_pconv_a)
                  0000a384    00000240     objdetrangehwa.oer4f (.text:DPC_ObjDetRangeHwa_rangeConfig)
                  0000a5c4    0000023c     mmw_lvds_stream.oer4f (.text:MmwDemo_LVDSStreamHwConfig)
                  0000a800    00000238     sysbios.aer4ft : BIOS.obj (.text:ti_sysbios_heaps_HeapMem_allocUnprotected__E)
                  0000aa38    0000022c     libcbuff_xwr68xx.aer4f : cbuff_lvds.oer4f (.text:CBUFF_openLVDS)
                  0000ac64    0000022c     librangeproc_hwa_xwr68xx.aer4f : rangeprochwa.oer4f (.text:rangeProcHWA_ConfigHWA)
                  0000ae90    00000224     sysbios.aer4ft : BIOS.obj (.text:ti_sysbios_timers_rti_Timer_Module_startup__E)
                  0000b0b4    00000214     libuart_xwr68xx.aer4f : uartsci.oer4f (.text:UartSci_open)
                  0000b2c8    00000210     mss_main.oer4f (.text:MmwDemo_eventCallbackFxn)
                  0000b4d8    0000020a     libcbuff_xwr68xx.aer4f : cbuff_transfer.oer4f (.text:CBUFF_addLinkedList)
                  0000b6e2    0000000e     libsoc_xwr68xx.aer4f : soc_xwr68xx_mss.oer4f (.text:SOC_microDelay)
                  0000b6f0    00000208     sysbios.aer4ft : BIOS.obj (.text:ti_sysbios_knl_Task_sleep__E)
                  0000b8f8    00000204     libcli_xwr68xx.aer4f : cli_mmwave.oer4f (.text:CLI_MMWaveChirpCfg)
                  0000bafc    00000200     libcrc_xwr68xx.aer4f : crc.oer4f (.text:CRC_open)
                  0000bcfc    00000200     mss_main.oer4f (.text:MmwDemo_stopSensor)
                  0000befc    000001f8     objdetrangehwa.oer4f (.text:DPC_ObjectDetection_ioctl)
                  0000c0f4    0000000c     libedma_xwr68xx.aer4f : edma_low_level.oer4f (.text:EDMAsetRegion)
                  0000c100    000001f8     sysbios.aer4ft : BIOS.obj (.text:ti_sysbios_knl_Task_Instance_init__E)
                  0000c2f8    000001f0     libdma_xwr68xx.aer4f : dma.oer4f (.text:DMA_setChannelParams)
                  0000c4e8    000001e4     rtsv7R4_T_le_v3D16_eabi.lib : strtoll.c.obj (.text:strtoll)
                  0000c6cc    000001d4     libcbuff_xwr68xx.aer4f : cbuff_edma.oer4f (.text:CBUFF_configEDMA)
                  0000c8a0    000001cc     sysbios.aer4ft : BIOS.obj (.text:ti_sysbios_family_arm_v7r_vim_Hwi_dispatchIRQC__I)
                  0000ca6c    000001c8     libcbuff_xwr68xx.aer4f : cbuff_lvds.oer4f (.text:CBUFF_initLVDS)
                  0000cc34    000001c8     libmmwavelink_xwr68xx.aer4f : rl_driver.oer4f (.text:rlDriverRxHdrRead)
                  0000cdfc    000001c0     libedma_xwr68xx.aer4f : edma.oer4f (.text:EDMA_open)
                  0000cfbc    000001b0     mss_main.oer4f (.text:MmwDemo_startSensor)
                  0000d16c    000001b0     libmmwavelink_xwr68xx.aer4f : rl_driver.oer4f (.text:rlDriverMsgRead)
                  0000d31c    000001a8     mss_main.oer4f (.text:MmwDemo_bpmConfig)
                  0000d4c4    000001a4     libcbuff_xwr68xx.aer4f : cbuff.oer4f (.text:CBUFF_activateSession)
                  0000d668    000001a4     libcli_xwr68xx.aer4f : cli_mmwave.oer4f (.text:CLI_MMWaveSubFrameCfg)
                  0000d80c    000001a4     libmmwave_xwr68xx.aer4f : mmwave_dualcore.oer4f (.text:MMWave_serializeCfg)
                  0000d9b0    000001a0     rtsv7R4_T_le_v3D16_eabi.lib : _printfi.c.obj (.text:_pconv_g)
                  0000db50    0000019c     sysbios.aer4ft : BIOS.obj (.text:xdc_runtime_Error_policyDefault__E)
                  0000dcec    00000198     mss_main.oer4f (.text:MmwDemo_transferLVDSUserData)
                  0000de84    00000194     libmmwave_xwr68xx.aer4f : mmwave_link.oer4f (.text:MMWave_openLink)
                  0000e018    00000190     libmmwavelink_xwr68xx.aer4f : rl_driver.oer4f (.text:rlDriverCmdInvoke)
                  0000e1a8    00000188     libedma_xwr68xx.aer4f : edma.oer4f (.text:EDMA_configChannel)
                  0000e330    00000188     libhwa_xwr68xx.aer4f : hwa.oer4f (.text:HWA_open)
                  0000e4b8    00000188     mmw_cli.oer4f (.text:MmwDemo_CLIConfigDataPort)
                  0000e640    00000184     sysbios.aer4ft : BIOS.obj (.text:xdc_runtime_LoggerBuf_write8__E)
                  0000e7c4    00000180     libdpm_xwr68xx.aer4f : dpm_core.oer4f (.text:DPM_init)
                  0000e944    00000180                          : dpm_msg.oer4f (.text:DPM_msgRecv)
                  0000eac4    0000017c     mmwdemo_rfparser.oer4f (.text:MmwDemo_RFParser_setAoAParams)
                  0000ec40    0000017c     mss_main.oer4f (.text:main)
                  0000edbc    00000170     libgpio_xwr68xx.aer4f : gpio.oer4f (.text:GPIO_setConfig)
                  0000ef2c    00000004     libosal_xwr68xx.aer4f : HwiP_tirtos.oer4f (.text:HwiP_enableInterrupt)
                  0000ef30    0000016c     sysbios.aer4ft : BIOS.obj (.text:ti_sysbios_family_arm_exc_Exception_excHandler__I)
                  0000f09c    00000004     libmmwave_xwr68xx.aer4f : mmwave_link.oer4f (.text:MMWave_disableDevice)
                  0000f0a0    0000016c     sysbios.aer4ft : BIOS.obj (.text:ti_sysbios_knl_Semaphore_post__E)
                  0000f20c    00000164     mmw_lvds_stream.oer4f (.text:MmwDemo_LVDSStreamInit)
                  0000f370    00000164     mmw_lvds_stream.oer4f (.text:MmwDemo_LVDSStreamSwConfig)
                  0000f4d4    00000164     rtsv7R4_T_le_v3D16_eabi.lib : strtoull.c.obj (.text:strtoull)
                  0000f638    00000160     libqspi_xwr68xx.aer4f : qspi.oer4f (.text:QSPI_open)
                  0000f798    00000008     libosal_xwr68xx.aer4f : MemoryP_tirtos.oer4f (.text:MemoryP_getStats)
                  0000f7a0    00000160     sysbios.aer4ft : BIOS.obj (.text:ti_sysbios_family_arm_v7r_vim_Hwi_reconfig__E)
                  0000f900    0000015c     objdetrangehwa.oer4f (.text:DPC_ObjectDetection_execute)
                  0000fa5c    00000004     libmmwave_xwr68xx.aer4f : mmwave_link.oer4f (.text:MMWave_enableDevice)
                  0000fa60    00000158     sysbios.aer4ft : BIOS.obj (.text:ti_sysbios_knl_Task_postInit__I)
                  0000fbb8    00000154     objdetrangehwa.oer4f (.text:DPC_ObjectDetection_init)
                  0000fd0c    0000014c     libcli_xwr68xx.aer4f : cli_mmwave.oer4f (.text:CLI_MMWaveFrameCfg)
                  0000fe58    0000014c                          : cli.oer4f (.text:CLI_task)
                  0000ffa4    0000014c     libmmwave_xwr68xx.aer4f : mmwave_link.oer4f (.text:MMWave_initMMWaveLink)
                  000100f0    0000014a     libuart_xwr68xx.aer4f : uartsci.oer4f (.text:UartSci_ISR)
                  0001023a    00000002                           : uartsci.oer4f (.text:UartSci_init)
                  0001023c    00000148     libhsiheader_xwr68xx.aer4f : hsiheader.oer4f (.text:HSIHeader_init)
                  00010384    00000148     libmmwavelink_xwr68xx.aer4f : rl_driver.oer4f (.text:rlDriverCmdSendRetry)
                  000104cc    00000146     mmw_cli.oer4f (.text:MmwDemo_CLICalibDcRangeSig)
                  00010612    0000000e     libosal_xwr68xx.aer4f : SemaphoreP_tirtos.oer4f (.text:SemaphoreP_delete)
                  00010620    00000140     sysbios.aer4ft : BIOS.obj (.text:ti_sysbios_heaps_HeapMem_Instance_init__E)
                  00010760    00000140                    : BIOS.obj (.text:xdc_runtime_Core_createObject__I)
                  000108a0    0000013c     mmw_lvds_stream.oer4f (.text:MmwDemo_LVDSStreamDeleteHwSession)
                  000109dc    00000004     libmmwave_xwr68xx.aer4f : mmwave_listlib.oer4f (.text:MMWave_listGetHead)
                  000109e0    0000013c     sysbios.aer4ft : BIOS.obj (.text:ti_sysbios_knl_Clock_workFunc__E)
                  00010b1c    00000134     libadcbuf_xwr68xx.aer4f : adcbuf_mmwave.oer4f (.text:ADCBUF_MMWave_open)
                  00010c50    00000134     sysbios.aer4ft : BIOS.obj (.text:xdc_runtime_Startup_startMods__I)
                  00010d84    00000130     mmw_lvds_stream.oer4f (.text:MmwDemo_LVDSStreamDeleteSwSession)
                  00010eb4    00000130     rtsv7R4_T_le_v3D16_eabi.lib : strtol.c.obj (.text:strtol)
                  00010fe4    0000012c     librangeproc_hwa_xwr68xx.aer4f : rangeprochwa.oer4f (.text:rangeProcHWA_ConfigEDMADummyThreeLinks)
                  00011110    00000128     libmathutils.aer4f : mathutils.oer4f (.text:mathUtils_genWindow)
                  00011238    00000008     libosal_xwr68xx.aer4f : SemaphoreP_tirtos.oer4f (.text:SemaphoreP_Params_init)
                  00011240    00000128     sysbios.aer4ft : BIOS.obj (.text:ti_sysbios_utils_Load_updateThreadContexts__E)
                  00011368    00000124     libcli_xwr68xx.aer4f : cli_mmwave.oer4f (.text:CLI_MMWaveAdvFrameCfg)
                  0001148c    00000124                          : cli_mmwave.oer4f (.text:CLI_MMWaveContModeCfg)
                  000115b0    00000124     libedma_xwr68xx.aer4f : edma.oer4f (.text:EDMA_init)
                  000116d4    0000000c     libmmwave_xwr68xx.aer4f : mmwave_dualcore.oer4f (.text:MMWave_deviceMailboxCallbackFxn)
                  000116e0    00000120     sysbios.aer4ft : BIOS.obj (.text:xdc_runtime_LoggerBuf_write4__E)
                  00011800    0000011c     mmw_cli.oer4f (.text:MmwDemo_CLILvdsStreamCfg)
                  0001191c    00000004     libmmwave_xwr68xx.aer4f : mmwave_listlib.oer4f (.text:MMWave_listGetNext)
                  00011920    00000118     sysbios.aer4ft : BIOS.obj (.text:ti_sysbios_family_arm_v7r_vim_Hwi_Instance_init__E)
                  00011a38    00000114     libedma_xwr68xx.aer4f : edma.oer4f (.text:EDMA_configErrorMonitoring)
                  00011b4c    00000114     mss_main.oer4f (.text:MmwDemo_calibInit)
                  00011c60    00000110     libedma_xwr68xx.aer4f : edma.oer4f (.text:EDMA_transferComplete_isr)
                  00011d70    00000110     rtsv7R4_T_le_v3D16_eabi.lib : strtoul.c.obj (.text:strtoul)
                  00011e80    0000010c     libdpedma_hwa_xwr68xx.aer4f : dpedma.oer4f (.text:DPEDMA_configSyncAB)
                  00011f8c    0000010c     libdpm_xwr68xx.aer4f : dpm_msg.oer4f (.text:DPM_msgResultHandler)
                  00012098    0000010c     libmmwave_xwr68xx.aer4f : mmwave_link.oer4f (.text:MMWave_asyncEventHandler)
                  000121a4    0000010c                             : mmwave_dualcore.oer4f (.text:MMWave_deviceInitFxn)
                  000122b0    0000010c     sysbios.aer4ft : BIOS.obj (.text:ti_sysbios_knl_Task_schedule__I)
                  000123bc    00000004     libmmwave_xwr68xx.aer4f : mmwave_link.oer4f (.text:MMWave_mboxClose)
                  000123c0    0000010c     sysbios.aer4ft : BIOS.obj (.text:xdc_runtime_Core_constructObject__I)
                  000124cc    00000108     libdma_xwr68xx.aer4f : dma.oer4f (.text:DMA_disableInterrupt)
                  000125d4    00000108     libmailbox_xwr68xx.aer4f : mailbox.oer4f (.text:Mailbox_write)
                  000126dc    00000108     mmw_cli.oer4f (.text:MmwDemo_CLICfarCfg)
                  000127e4    00000104     libcbuff_xwr68xx.aer4f : cbuff.oer4f (.text:CBUFF_deinit)
                  000128e8    00000104     libdpedma_hwa_xwr68xx.aer4f : dpedma.oer4f (.text:DPEDMA_configSyncA_singleFrame)
                  000129ec    00000104     libmmwave_xwr68xx.aer4f : mmwave_link.oer4f (.text:MMWave_startLink)
                  00012af0    00000104     mmw_cli.oer4f (.text:MmwDemo_CLIChirpQualityRxSatMonCfg)
                  00012bf4    00000104     mmw_cli.oer4f (.text:MmwDemo_CLICompRangeBiasAndRxChanPhaseCfg)
                  00012cf8    00000104     rtsv7R4_T_le_v3D16_eabi.lib : _printfi.c.obj (.text:_pconv_e)
                  00012dfc    00000004     libmmwave_xwr68xx.aer4f : mmwave_link.oer4f (.text:MMWave_mboxRead)
                  00012e00    00000104     sysbios.aer4ft : BIOS.obj (.text:ti_sysbios_timers_rti_Timer_getFreq__E)
                  00012f04    00000100     libcli_xwr68xx.aer4f : cli_mmwave.oer4f (.text:CLI_MMWaveBPMCfgAdvanced)
                  00013004    00000100     libdma_xwr68xx.aer4f : dma.oer4f (.text:DMA_clearChannelInterruptFlag)
                  00013104    00000100     libmmwavelink_xwr68xx.aer4f : rl_driver.oer4f (.text:rlDriverInit)
                  00013204    000000fc     libcbuff_xwr68xx.aer4f : cbuff.oer4f (.text:CBUFF_deleteSession)
                  00013300    000000fc     libcrc_xwr68xx.aer4f : crc.oer4f (.text:CRC_computeSignature)
                  000133fc    000000fc     mmw_cli.oer4f (.text:MmwDemo_CLIADCBufCfg)
                  000134f8    000000fc     rtsv7R4_T_le_v3D16_eabi.lib : _printfi.c.obj (.text:fcvt)
                  000135f4    0000000c     libmmwave_xwr68xx.aer4f : mmwave_osal.oer4f (.text:MMWave_osalMutexUnlock)
                  00013600    000000fc     sysbios.aer4ft : BIOS.obj (.text:ti_sysbios_knl_Task_exit__E)
                  000136fc    000000fa     mss_main.oer4f (.text:MmwDemo_setSubFramePendingState)
                  000137f6    00000002     rtsv7R4_T_le_v3D16_eabi.lib : _lock.c.obj (.text:_nop)
                  000137f8    000000f8     mmw_lvds_stream.oer4f (.text:MmwDemo_configLVDSHwData)
                  000138f0    000000f8     libmmwavelink_xwr68xx.aer4f : rl_driver.oer4f (.text:rlDriverRdVerifyMsg)
                  000139e8    000000f8     mmw_mss_per4ft.oer4ft (.text:xdc_runtime_System_printfExtend__I)
                  00013ae0    000000f4     mmw_cli.oer4f (.text:MmwDemo_CLICalibDataSaveRestore)
                  00013bd4    000000f0     rtsv7R4_T_le_v3D16_eabi.lib : s_scalbn.c.obj (.text:scalbn)
                  00013cc4    0000000c     libmmwave_xwr68xx.aer4f : mmwave_osal.oer4f (.text:MMWave_osalSemSignal)
                  00013cd0    000000f0     sysbios.aer4ft : BIOS.obj (.text:ti_sysbios_family_arm_v7r_vim_Hwi_Module_startup__E)
                  00013dc0    000000f0                    : BIOS.obj (.text:ti_sysbios_knl_Task_startCore__E)
                  00013eb0    000000f0                    : BIOS.obj (.text:ti_sysbios_utils_Load_taskCreateHook__E)
                  00013fa0    000000ec     mmw_cli.oer4f (.text:MmwDemo_CLIChirpQualitySigImgMonCfg)
                  0001408c    00000004     libmmwave_xwr68xx.aer4f : mmwave_link.oer4f (.text:MMWave_registerInterruptHandler)
                  00014090    000000ec     sysbios.aer4ft : BIOS.obj (.text:ti_sysbios_heaps_HeapBuf_Module_startup__E)
                  0001417c    000000ea     libdpedma_hwa_xwr68xx.aer4f : dpedmahwa.oer4f (.text:DPEDMAHWA_configTwoHotSignature)
                  00014266    00000002     rtsv7R4_T_le_v3D16_eabi.lib : div0.asm.obj (.text)
                  00014268    000000e8     libmmwavelink_xwr68xx.aer4f : rl_sensor.oer4f (.text:rlRfCalibDataStore)
                  00014350    000000e8                                 : rl_sensor.oer4f (.text:rlRfPhShiftCalibDataStore)
                  00014438    000000e4     mmw_cli.oer4f (.text:MmwDemo_CLIBpmCfg)
                  0001451c    000000e4     libmmwavelink_xwr68xx.aer4f : rl_sensor.oer4f (.text:rlRfPhShiftCalibDataRestore)
                  00014600    000000e2     libedma_xwr68xx.aer4f : edma.oer4f (.text:EDMA_paramConfig_assist)
                  000146e2    00000002     mmw_mss_per4ft.oer4ft (.text:ti_sysbios_BIOS_nullFunc__I)
                  000146e4    000000e0     libcli_xwr68xx.aer4f : cli.oer4f (.text:CLI_open)
                  000147c4    000000e0     libdma_xwr68xx.aer4f : dma.oer4f (.text:DMA_enableInterrupt)
                  000148a4    000000e0     rtsv7R4_T_le_v3D16_eabi.lib : s_floor.c.obj (.text:floor)
                  00014984    000000dc     libmmwave_xwr68xx.aer4f : mmwave.oer4f (.text:MMWave_init)
                  00014a60    000000dc     libmmwavelink_xwr68xx.aer4f : rl_driver.oer4f (.text:rlDriverMsgCmdReply)
                  00014b3c    000000dc     rtsv7R4_T_le_v3D16_eabi.lib : setvbuf.c.obj (.text:setvbuf)
                  00014c18    000000d4     libmailbox_xwr68xx.aer4f : mailbox.oer4f (.text:Mailbox_read)
                  00014cec    000000d4     librangeproc_hwa_xwr68xx.aer4f : rangeprochwa.oer4f (.text:rangeProcHWA_ConfigEDMA_DataIn)
                  00014dc0    000000d4     libmmwavelink_xwr68xx.aer4f : rl_sensor.oer4f (.text:rlSetMultiBpmChirpConfig)
                  00014e94    0000000c     libuart_xwr68xx.aer4f : UART.oer4f (.text:UART_Params_init)
                  00014ea0    000000d4     sysbios.aer4ft : BIOS.obj (.text:ti_sysbios_utils_Load_logLoads__I)
                  00014f74    000000d0     librangeproc_hwa_xwr68xx.aer4f : rangeprochwa.oer4f (.text:DPU_RangeProcHWA_control)
                  00015044    000000d0     libsoc_xwr68xx.aer4f : soc_xwr68xx_mss.oer4f (.text:SOC_controlSecureFirewall)
                  00015114    000000d0     sysbios.aer4ft : exc_Exception_asm.obj (.text:ti_sysbios_family_arm_exc_Exception_excHandlerAsm__I)
                  000151e4    0000000c     libuart_xwr68xx.aer4f : uartsci_dma.oer4f (.text:UartSci_isDMAEnabled)
                  000151f0    000000d0     sysbios.aer4ft : BIOS.obj (.text:ti_sysbios_utils_Load_idleFxn__E)
                  000152c0    000000d0                    : BIOS.obj (.text:xdc_runtime_LoggerBuf_Instance_init__E)
                  00015390    000000cc     libhwa_xwr68xx.aer4f : hwa.oer4f (.text:HWA_enableParamSetInterrupt)
                  0001545c    000000cc     mss_main.oer4f (.text:MmwDemo_configSensor)
                  00015528    000000cc     libmmwavelink_xwr68xx.aer4f : rl_sensor.oer4f (.text:rlRfCalibDataRestore)
                  000155f4    000000cc                                 : rl_sensor.oer4f (.text:rlSetChirpConfig)
                  000156c0    000000cc     sysbios.aer4ft : BIOS.obj (.text:ti_sysbios_knl_Task_checkStacks__E)
                  0001578c    000000c8     libmmwave_xwr68xx.aer4f : mmwave_fullcfg.oer4f (.text:MMWave_addChirp)
                  00015854    000000c8                             : mmwave_link.oer4f (.text:MMWave_configBPM)
                  0001591c    000000c8                             : mmwave_fullcfg.oer4f (.text:MMWave_flushCfg)
                  000159e4    000000c8                             : mmwave_fullcfg.oer4f (.text:MMWave_getChirpHandle)
                  00015aac    000000c8     libsoc_xwr68xx.aer4f : soc_xwr68xx.oer4f (.text:SOC_ungateClock)
                  00015b74    000000c8     libmmwavelink_xwr68xx.aer4f : rl_sensor.oer4f (.text:rlSetFrameConfig)
                  00015c3c    000000c4     libcbuff_xwr68xx.aer4f : cbuff_transfer.oer4f (.text:CBUFF_setupNonInterleaved_CP_ADC_CQ)
                  00015d00    000000c4     libdpm_xwr68xx.aer4f : dpm_core.oer4f (.text:DPM_deinit)
                  00015dc4    000000c4                          : dpm_core.oer4f (.text:DPM_ioctl)
                  00015e88    00000008     rtsv7R4_T_le_v3D16_eabi.lib : errno.c.obj (.text:__aeabi_errno_addr)
                  00015e90    000000c4     sysbios.aer4ft : BIOS.obj (.text:ti_sysbios_family_arm_v7a_Pmu_configureCounter__E)
                  00015f54    000000c0     librangeproc_hwa_xwr68xx.aer4f : rangeprochwa.oer4f (.text:DPU_RangeProcHWA_init)
                  00016014    000000c0     mmw_cli.oer4f (.text:MmwDemo_CLIAnalogMonitorCfg)
                  000160d4    000000c0     mss_main.oer4f (.text:MmwDemo_isAllCfgInPendingState)
                  00016194    000000c0     libmmwavelink_xwr68xx.aer4f : rl_driver.oer4f (.text:rlDriverMsgWrite)
                  00016254    0000000c     rtsv7R4_T_le_v3D16_eabi.lib : _lock.c.obj (.text:_register_lock)
                  00016260    000000c0     sysbios.aer4ft : BIOS.obj (.text:ti_sysbios_timers_rti_Timer_startup__E)
                  00016320    000000bc     libcli_xwr68xx.aer4f : cli.oer4f (.text:CLI_help)
                  000163dc    000000bc     libgpio_xwr68xx.aer4f : gpio.oer4f (.text:GPIO_write)
                  00016498    000000bc     libmmwave_xwr68xx.aer4f : mmwave_link.oer4f (.text:MMWave_computeCRC)
                  00016554    000000bc     mmw_lvds_stream.oer4f (.text:MmwDemo_LVDSStream_EDMAInit)
                  00016610    000000b8     libcbuff_xwr68xx.aer4f : cbuff.oer4f (.text:CBUFF_ISR)
                  000166c8    000000b8                            : cbuff_transfer.oer4f (.text:CBUFF_setupTransfer)
                  00016780    000000b8     libdma_xwr68xx.aer4f : dma.oer4f (.text:DMA_getChannelInterruptFlag)
                  00016838    000000b6     libsoc_xwr68xx.aer4f : soc_mpu.o (.text)
                  000168ee    00000002     mmw_mss_per4ft.oer4ft (.text:xdc_runtime_Startup_reset__I)
                  000168f0    000000b4     rtsv7R4_T_le_v3D16_eabi.lib : k_cos.c.obj (.text:__kernel_cos)
                  000169a4    0000000c                                 : _lock.c.obj (.text:_register_unlock)
                  000169b0    000000b4     sysbios.aer4ft : BIOS.obj (.text:ti_sysbios_gates_GateMutex_enter__E)
                  00016a64    0000000c                    : arm_IntrinsicsSupport_asm.obj (.text:_ti_sysbios_family_arm_IntrinsicsSupport_maxbitA)
                  00016a70    000000b4                    : BIOS.obj (.text:xdc_runtime_LoggerBuf_setFilterLevel__E)
                  00016b24    000000b2     libuart_xwr68xx.aer4f : uartsci_dma.oer4f (.text:UartSci_openDMA)
                  00016bd6    00000002     --HOLE-- [fill = 0]
                  00016bd8    000000b0     libcbuff_xwr68xx.aer4f : cbuff.oer4f (.text:CBUFF_deactivateSession)
                  00016c88    000000b0     libmmwave_xwr68xx.aer4f : mmwave_fullcfg.oer4f (.text:MMWave_addProfile)
                  00016d38    000000b0     mss_main.oer4f (.text:MmwDemo_isAllCfgInNonPendingState)
                  00016de8    000000b0     libmmwavelink_xwr68xx.aer4f : rl_sensor.oer4f (.text:rlSetProfileConfig)
                  00016e98    00000008     rtsv7R4_T_le_v3D16_eabi.lib : sscanf.c.obj (.text:_uninpchar)
                  00016ea0    000000b0     sysbios.aer4ft : BIOS.obj (.text:ti_sysbios_utils_Load_updateLoads__E)
                  00016f50    000000ae     mmwdemo_adcconfig.oer4f (.text:MmwDemo_ADCBufConfig)
                  00016ffe    00000002     --HOLE-- [fill = 0]
                  00017000    000000ad     rtsv7R4_T_le_v3D16_eabi.lib : _printfi.c.obj (.text:_ltostr)
                  000170ad    00000003     --HOLE-- [fill = 0]
                  000170b0    000000ac     libesm_xwr68xx.aer4f : esm.oer4f (.text:ESM_processInterrupt)
                  0001715c    000000ac     mss_main.oer4f (.text:MmwDemo_edmaOpen)
                  00017208    00000008     librangeproc_hwa_xwr68xx.aer4f : rangeprochwa.oer4f (.text:rangeProcHWADoneIsrCallback)
                  00017210    000000ac     sysbios.aer4ft : BIOS.obj (.text:ti_sysbios_knl_Task_Module_startup__E)
                  000172bc    00000004     libmmwave_xwr68xx.aer4f : mmwave_link.oer4f (.text:MMWave_unmaskHostIRQ)
                  000172c0    000000ac     sysbios.aer4ft : BIOS.obj (.text:ti_sysbios_utils_Load_startup__E)
                  0001736c    000000a8     libadcbuf_xwr68xx.aer4f : adcbuf_mmwave.oer4f (.text:ADCBUF_MMWave_getChanBufAddr)
                  00017414    000000a8     libcli_xwr68xx.aer4f : cli_mmwave.oer4f (.text:CLI_MMWaveExtensionHelp)
                  000174bc    000000a8     libedma_xwr68xx.aer4f : edma_low_level.oer4f (.text:EDMA3Init)
                  00017564    000000a8     libmmwave_xwr68xx.aer4f : mmwave_link.oer4f (.text:MMWave_configureProfileChirp)
                  0001760c    000000a8                             : mmwave_fullcfg.oer4f (.text:MMWave_getBpmChirpHandle)
                  000176b4    000000a8     libpinmux_xwr68xx.aer4f : pinmux.oer4f (.text:Pinmux_Set_OverrideCtrl)
                  0001775c    000000a8     libsoc_xwr68xx.aer4f : soc.oer4f (.text:SOC_deregisterSysIntListener)
                  00017804    000000a8     rtsv7R4_T_le_v3D16_eabi.lib : k_sin.c.obj (.text:__kernel_sin)
                  000178ac    000000a8     libmmwavelink_xwr68xx.aer4f : rl_driver.oer4f (.text:rlDriverWaitForResponse)
                  00017954    000000a8                                 : rl_sensor.oer4f (.text:rlSetAdvFrameConfig)
                  000179fc    00000004     libmmwave_xwr68xx.aer4f : mmwave_link.oer4f (.text:MMWave_waitIRQStatus)
                  00017a00    000000a8     sysbios.aer4ft : BIOS.obj (.text:xdc_runtime_Text_putMod__E)
                  00017aa8    000000a4     libdma_xwr68xx.aer4f : dma.oer4f (.text:DMA_assignChannel)
                  00017b4c    000000a4     libesm_xwr68xx.aer4f : esm.oer4f (.text:ESM_init)
                  00017bf0    000000a4     libmmwave_xwr68xx.aer4f : mmwave_fullcfg.oer4f (.text:MMWave_addBpmChirp)
                  00017c94    000000a4                             : mmwave.oer4f (.text:MMWave_start)
                  00017d38    000000a4     libqspiflash_xwr68xx.aer4f : qspiflash.oer4f (.text:QSPIFlash_mmapWrite)
                  00017ddc    000000a4     libsoc_xwr68xx.aer4f : soc_xwr68xx_mss.oer4f (.text:SOC_unhaltDSS)
                  00017e80    000000a2     sysbios.aer4ft : BIOS.obj (.text:xdc_runtime_Text_putSite__E)
                  00017f22    00000002     --HOLE-- [fill = 0]
                  00017f24    000000a0     libqspiflash_xwr68xx.aer4f : qspiflash.oer4f (.text:QSPIFlash_configMmapRead)
                  00017fc4    000000a0                                : qspiflash_device_macronix.oer4f (.text:QSPIFlash_macronix_progQuadRead)
                  00018064    000000a0     libsoc_xwr68xx.aer4f : soc.oer4f (.text:SOC_registerSysIntListener)
                  00018104    000000a0     auto_init.aer4ft : auto_init.oer4ft (.text)
                  000181a4    0000000c     rtsv7R4_T_le_v3D16_eabi.lib : copy_zero_init.c.obj (.text:decompress:ZI:__TI_zero_init)
                  000181b0    000000a0     sysbios.aer4ft : BIOS.obj (.text:ti_sysbios_knl_Task_blockI__E)
                  00018250    0000009c     libmmwave_xwr68xx.aer4f : mmwave_link.oer4f (.text:MMWave_configLink)
                  000182ec    0000009c                             : mmwave_fullcfg.oer4f (.text:MMWave_getProfileHandle)
                  00018388    0000009c     mmw_cli.oer4f (.text:MmwDemo_CLIMeasureRangeBiasAndRxChanPhaseCfg)
                  00018424    0000009c     libqspiflash_xwr68xx.aer4f : qspiflash_device_spansion.oer4f (.text:QSPIFlash_spansion_progQuadRead)
                  000184c0    0000009c     libuart_xwr68xx.aer4f : uartsci.oer4f (.text:UartSci_write)
                  0001855c    0000009c     rtsv7R4_T_le_v3D16_eabi.lib : memcpy_t2.asm.obj (.text)
                  000185f8    00000008     libmmwavelink_xwr68xx.aer4f : rl_driver.oer4f (.text:rlDriverConstructOutMsg)
                  00018600    0000009c     sysbios.aer4ft : BIOS.obj (.text:ti_sysbios_family_arm_v7r_vim_Hwi_initIntController__I)
                  0001869c    00000004     mss_main.oer4f (.text:MmwDemo_sleep)
                  000186a0    0000009c     sysbios.aer4ft : BIOS.obj (.text:ti_sysbios_family_arm_v7r_vim_Hwi_mapChannel__I)
                  0001873c    00000004     rtsv7R4_T_le_v3D16_eabi.lib : exit.c.obj (.text:abort:abort)
                  00018740    0000009c     sysbios.aer4ft : BIOS.obj (.text:ti_sysbios_knl_Semaphore_Instance_init__E)
                  000187dc    0000009a     libdpm_xwr68xx.aer4f : dpm_msg.oer4f (.text:DPM_msgResponseHandler)
                  00018876    00000002     --HOLE-- [fill = 0]
                  00018878    00000098     libmmwave_xwr68xx.aer4f : mmwave_fullcfg.oer4f (.text:MMWave_getChirpCfg)
                  00018910    00000098     mmwdemo_rfparser.oer4f (.text:MmwDemo_RFParser_parseConfig)
                  000189a8    00000098     sysbios.aer4ft : vim_Hwi_asm_switch.obj (.text)
                  00018a40    00000098                    : BIOS.obj (.text:ti_sysbios_utils_Load_taskDeleteHook__E)
                  00018ad8    00000096     libedma_xwr68xx.aer4f : edma.oer4f (.text:EDMA_getErrorStatusInfo)
                  00018b6e    00000096     libhwa_xwr68xx.aer4f : hwa.oer4f (.text:HWA_configRam)
                  00018c04    00000096     libuart_xwr68xx.aer4f : uartsci.oer4f (.text:UartSci_readChar)
                  00018c9a    00000094     libcbuff_xwr68xx.aer4f : cbuff_transfer.oer4f (.text:CBUFF_setupNonInterleaved_ADC)
                  00018d2e    00000002     --HOLE-- [fill = 0]
                  00018d30    00000094     mmw_lvds_stream.oer4f (.text:MmwDemo_LVDSStream_EDMAAllocateCBUFFHwChannel)
                  00018dc4    00000094     mmw_lvds_stream.oer4f (.text:MmwDemo_LVDSStream_EDMAAllocateCBUFFSwChannel)
                  00018e58    00000094     libsoc_xwr68xx.aer4f : soc_xwr68xx.oer4f (.text:SOC_gateClock)
                  00018eec    00000094     libmmwavelink_xwr68xx.aer4f : rl_driver.oer4f (.text:rlDriverDeInit)
                  00018f80    00000094                                 : rl_driver.oer4f (.text:rlDriverMsgReadCmdCtx)
                  00019014    00000094                                 : rl_driver.oer4f (.text:rlDriverProcRdMsg)
                  000190a8    00000094     sysbios.aer4ft : vim_Hwi_asm.obj (.text:ti_sysbios_family_arm_v7r_vim_Hwi_dispatchIRQ__I)
                  0001913c    00000090     libgpio_xwr68xx.aer4f : gpio.oer4f (.text:GPIO_init)
                  000191cc    00000090     libmailbox_xwr68xx.aer4f : mailbox.oer4f (.text:Mailbox_close)
                  0001925c    00000090     libuart_xwr68xx.aer4f : uartsci_dma.oer4f (.text:UartSci_initiateTxDMA)
                  000192ec    00000090                           : uartsci.oer4f (.text:UartSci_read)
                  0001937c    00000090     rtsv7R4_T_le_v3D16_eabi.lib : fputc.c.obj (.text:fputc)
                  0001940c    00000004     mmw_mss_per4ft.oer4ft (.text:ti_sysbios_BIOS_RtsGateProxy_enter__E)
                  00019410    00000090     sysbios.aer4ft : BIOS.obj (.text:ti_sysbios_family_arm_v7a_Pmu_startCounter__E)
                  000194a0    00000090                    : BIOS.obj (.text:ti_sysbios_knl_Task_unblockI__E)
                  00019530    00000090                    : BIOS.obj (.text:xdc_runtime_LoggerBuf_getFilterLevel__E)
                  000195c0    0000008c     libcli_xwr68xx.aer4f : cli_mmwave.oer4f (.text:CLI_MMWaveDataOutputMode)
                  0001964c    0000008c     libsoc_xwr68xx.aer4f : soc.oer4f (.text:SOC_init)
                  000196d8    0000008c                          : soc_xwr68xx.oer4f (.text:SOC_translateAddress)
                  00019764    0000008c     libuart_xwr68xx.aer4f : uartsci_dma.oer4f (.text:UartSci_initiateRxDMA)
                  000197f0    0000008c     libmmwavelink_xwr68xx.aer4f : rl_device.oer4f (.text:rlDevicePowerOn)
                  0001987c    0000008c                                 : rl_driver.oer4f (.text:rlDriverMsgReadSpawnCtx)
                  00019908    00000008                                 : rl_driver.oer4f (.text:rlDriverGetHandle)
                  00019910    0000008c     sysbios.aer4ft : BIOS.obj (.text:ti_sysbios_family_arm_v7a_Pmu_getCount__E)
                  0001999c    00000004     mmw_mss_per4ft.oer4ft (.text:ti_sysbios_BIOS_RtsGateProxy_leave__E)
                  000199a0    0000008c     sysbios.aer4ft : BIOS.obj (.text:ti_sysbios_family_arm_v7r_vim_Hwi_Instance_finalize__E)
                  00019a2c    00000004     mmw_mss_per4ft.oer4ft (.text:ti_sysbios_family_arm_TaskSupport_Module__startupDone__S)
                  00019a30    0000008c     sysbios.aer4ft : BIOS.obj (.text:xdc_runtime_Memory_alloc__E)
                  00019abc    00000088     objdetrangehwa.oer4f (.text:DPC_ObjectDetection_frameStart)
                  00019b44    00000088     libhwa_xwr68xx.aer4f : hwa.oer4f (.text:HWA_disableParamSetInterrupt)
                  00019bcc    00000088     libmmwave_xwr68xx.aer4f : mmwave_fullcfg.oer4f (.text:MMWave_getProfileCfg)
                  00019c54    00000086     libcbuff_xwr68xx.aer4f : cbuff_edma.oer4f (.text:CBUFF_closeEDMA)
                  00019cda    00000002     --HOLE-- [fill = 0]
                  00019cdc    00000084     libmmwave_xwr68xx.aer4f : mmwave_dualcore.oer4f (.text:MMWave_deviceCfgAsyncEvent)
                  00019d60    00000084                             : mmwave_dualcore.oer4f (.text:MMWave_deviceEventFxn)
                  00019de4    00000084                             : mmwave_fullcfg.oer4f (.text:MMWave_getNumBpmChirp)
                  00019e68    00000084                             : mmwave.oer4f (.text:MMWave_open)
                  00019eec    00000082     libhwa_xwr68xx.aer4f : hwa.oer4f (.text:HWA_paramDoneISR)
                  00019f6e    00000002     --HOLE-- [fill = 0]
                  00019f70    00000081     libcbuff_xwr68xx.aer4f : cbuff_edma.oer4f (.text:CBUFF_setupEDMAShadowLink)
                  00019ff1    00000003     --HOLE-- [fill = 0]
                  00019ff4    00000080     libcli_xwr68xx.aer4f : cli_mmwave.oer4f (.text:CLI_MMWaveChannelCfg)
                  0001a074    00000080     libdpm_xwr68xx.aer4f : dpm_mailbox.oer4f (.text:DPM_mboxRemoteMailboxCallbackFxn)
                  0001a0f4    00000080     libmmwave_xwr68xx.aer4f : mmwave_fullcfg.oer4f (.text:MMWave_getBpmChirpCfg)
                  0001a174    00000080     mmw_cli.oer4f (.text:MmwDemo_CLIAoAFovCfg)
                  0001a1f4    00000080     libsoc_xwr68xx.aer4f : soc.oer4f (.text:SOC_getDeviceRFFreqScaleFactor)
                  0001a274    00000080     libuart_xwr68xx.aer4f : uartsci.oer4f (.text:UartSci_writePolling)
                  0001a2f4    00000080     rtsv7R4_T_le_v3D16_eabi.lib : fflush.c.obj (.text:fflush)
                  0001a374    00000080     libmmwavelink_xwr68xx.aer4f : rl_driver.oer4f (.text:rlDriverExecuteGetApi)
                  0001a3f4    0000000c     rtsv7R4_T_le_v3D16_eabi.lib : fputc.c.obj (.text:putchar)
                  0001a400    00000080     sysbios.aer4ft : BIOS.obj (.text:ti_sysbios_timers_rti_Timer_initDevice__I)
                  0001a480    0000007e     libosal_xwr68xx.aer4f : HwiP_tirtos.oer4f (.text:HwiP_create)
                  0001a4fe    00000002     --HOLE-- [fill = 0]
                  0001a500    0000007d     libcbuff_xwr68xx.aer4f : cbuff_lvds.oer4f (.text:CBUFF_initLVDSLinkListParams)
                  0001a57d    00000003     --HOLE-- [fill = 0]
                  0001a580    0000007c     libdpm_xwr68xx.aer4f : dpm_pipe.oer4f (.text:DPM_pipeSend)
                  0001a5fc    0000007c     libedma_xwr68xx.aer4f : edma.oer4f (.text:EDMA_clearErrors)
                  0001a678    0000007c     libmmwave_xwr68xx.aer4f : mmwave_dualcore.oer4f (.text:MMWave_deviceOpenFxn)
                  0001a6f4    0000007c     libmailbox_xwr68xx.aer4f : mailbox.oer4f (.text:Mailbox_init)
                  0001a770    0000007c     mmw_lvds_stream.oer4f (.text:MmwDemo_LVDSStream_SwTriggerFrameDone)
                  0001a7ec    0000007c     libuart_xwr68xx.aer4f : uartsci.oer4f (.text:UartSci_readPolling)
                  0001a868    0000007c     sysbios.aer4ft : arm_TaskSupport_asm.obj (.text:_ti_sysbios_family_arm_TaskSupport_buildTaskStack)
                  0001a8e4    0000000c     libmmwavelink_xwr68xx.aer4f : rl_driver.oer4f (.text:rlDriverGetPlatformId)
                  0001a8f0    0000007c     sysbios.aer4ft : BIOS.obj (.text:xdc_runtime_Core_deleteObject__I)
                  0001a96c    0000007b     mmw_cli.oer4f (.text:MmwDemo_CLIGetSubframe)
                  0001a9e7    00000001     --HOLE-- [fill = 0]
                  0001a9e8    0000007a     rtsv7R4_T_le_v3D16_eabi.lib : _printfi.c.obj (.text:_mcpy)
                  0001aa62    0000007a                                 : memset_t2.asm.obj (.text)
                  0001aadc    00000078     libadcbuf_xwr68xx.aer4f : adcbuf_mmwave.oer4f (.text:ADCBUF_MMWave_getCQBufAddr)
                  0001ab54    00000078     libcbuff_xwr68xx.aer4f : cbuff_transfer.oer4f (.text:CBUFF_configUserBufferEDMA)
                  0001abcc    00000078                            : cbuff.oer4f (.text:CBUFF_setVC)
                  0001ac44    00000078     libcli_xwr68xx.aer4f : cli_mmwave.oer4f (.text:CLI_MMWaveADCCfg)
                  0001acbc    00000078     libedma_xwr68xx.aer4f : edma.oer4f (.text:EDMA_configParamSet)
                  0001ad34    00000078     libmmwave_xwr68xx.aer4f : mmwave_fullcfg.oer4f (.text:MMWave_getNumChirps)
                  0001adac    00000078     libqspiflash_xwr68xx.aer4f : qspiflash.oer4f (.text:QSPIFlash_mmapRead)
                  0001ae24    00000078                                : qspiflash.oer4f (.text:QSPIFlash_sectorErase)
                  0001ae9c    00000078     libqspi_xwr68xx.aer4f : qspi.oer4f (.text:QSPI_cfgRead)
                  0001af14    00000077                           : qspi.oer4f (.text:QSPI_memAccessCfg)
                  0001af8b    00000001     --HOLE-- [fill = 0]
                  0001af8c    00000074     objdetrangehwa.oer4f (.text:DPC_ObjectDetection_start)
                  0001b000    00000074     libmmwave_xwr68xx.aer4f : mmwave.oer4f (.text:MMWave_config)
                  0001b074    00000074                             : mmwave_dualcore.oer4f (.text:MMWave_deviceStartFxn)
                  0001b0e8    00000074     rtsv7R4_T_le_v3D16_eabi.lib : fclose.c.obj (.text:__TI_closefile)
                  0001b15c    00000074     boot.aer4ft : boot.oer4ft (.text)
                  0001b1d0    00000074     rtsv7R4_T_le_v3D16_eabi.lib : s_frexp.c.obj (.text:frexp)
                  0001b244    00000074     libmmwavelink_xwr68xx.aer4f : rl_driver.oer4f (.text:rlDriverAsyncEventHandler)
                  0001b2b8    00000072                                 : rl_driver.oer4f (.text:rlDriverClientCbCheck)
                  0001b32a    00000002     --HOLE-- [fill = 0]
                  0001b32c    00000070     libhsiheader_xwr68xx.aer4f : hsiheader.oer4f (.text:HSIHeader_deleteHeader)
                  0001b39c    00000070     libhwa_xwr68xx.aer4f : hwa.oer4f (.text:HWA_getDriverAccess)
                  0001b40c    00000070     libmmwave_xwr68xx.aer4f : mmwave_dualcore.oer4f (.text:MMWave_deviceCfgFxn)
                  0001b47c    00000070     mmw_cli.oer4f (.text:MmwDemo_CLIGuiMonSel)
                  0001b4ec    00000070     mmwdemo_flash.oer4f (.text:mmwDemo_flashInit)
                  0001b55c    00000004     mmw_mss_per4ft.oer4ft (.text:ti_sysbios_family_arm_v7r_vim_Hwi_delete)
                  0001b560    00000070     sysbios.aer4ft : BIOS.obj (.text:xdc_runtime_Error_print__E)
                  0001b5d0    0000006c     libdma_xwr68xx.aer4f : dma.oer4f (.text:DMA_disableChannel)
                  0001b63c    0000006c                          : dma.oer4f (.text:DMA_enableChannel)
                  0001b6a8    0000006c     libdpm_xwr68xx.aer4f : dpm_core.oer4f (.text:DPM_relayResult)
                  0001b714    0000006c     rtsv7R4_T_le_v3D16_eabi.lib : hostrename.c.obj (.text:HOSTrename)
                  0001b780    0000006c     libmmwave_xwr68xx.aer4f : mmwave_link.oer4f (.text:MMWave_spawn)
                  0001b7ec    0000006c                             : mmwave_link.oer4f (.text:MMWave_stopLink)
                  0001b858    0000006c     mmw_lvds_stream.oer4f (.text:MmwDemo_LVDSStream_EDMAFreeCBUFFHwChannel)
                  0001b8c4    0000006c     mmw_lvds_stream.oer4f (.text:MmwDemo_LVDSStream_EDMAFreeCBUFFSwChannel)
                  0001b930    0000006c     mmw_lvds_stream.oer4f (.text:MmwDemo_LVDSStream_HwTriggerFrameDone)
                  0001b99c    0000006c     libpinmux_xwr68xx.aer4f : pinmux.oer4f (.text:Pinmux_Set_FuncSel)
                  0001ba08    0000006c     libqspiflash_xwr68xx.aer4f : qspiflash.oer4f (.text:QSPIFlashReadSFDP)
                  0001ba74    0000006c     libqspi_xwr68xx.aer4f : qspi.oer4f (.text:QSPI_cfgWrite)
                  0001bae0    0000006c     rtsv7R4_T_le_v3D16_eabi.lib : copy_decompress_lzss.c.obj (.text:decompress:lzss:__TI_decompress_lzss)
                  0001bb4c    0000006a     libuart_xwr68xx.aer4f : uartsci.oer4f (.text:UartSci_control)
                  0001bbb6    00000002     --HOLE-- [fill = 0]
                  0001bbb8    00000068     libdpm_xwr68xx.aer4f : dpm_msg.oer4f (.text:DPM_msgDPCCfgHandler)
                  0001bc20    00000068     rtsv7R4_T_le_v3D16_eabi.lib : hostlseek.c.obj (.text:HOSTlseek)
                  0001bc88    00000068     libmmwave_xwr68xx.aer4f : mmwave_dualcore.oer4f (.text:MMWave_deviceStopFxn)
                  0001bcf0    00000068     libmailbox_xwr68xx.aer4f : mailbox.oer4f (.text:Mailbox_readFlush)
                  0001bd58    00000068     mss_main.oer4f (.text:MmwDemo_convertCfarToLinear)
                  0001bdc0    00000068     rtsv7R4_T_le_v3D16_eabi.lib : sscanf.c.obj (.text:_chkmbc)
                  0001be28    00000068     librangeproc_hwa_xwr68xx.aer4f : rangeprochwa.oer4f (.text:rangeProcHWA_ConfigEDMATranspose)
                  0001be90    00000068                                    : rangeprochwa.oer4f (.text:rangeProcHWA_ConfigHWACommon)
                  0001bef8    00000068     libmmwavelink_xwr68xx.aer4f : rl_driver.oer4f (.text:rlDriverExecuteSetApi)
                  0001bf60    00000068                                 : rl_driver.oer4f (.text:rlDriverHostIrqHandler)
                  0001bfc8    00000066                                 : rl_device.oer4f (.text:rlDevicePowerOff)
                  0001c02e    00000002     --HOLE-- [fill = 0]
                  0001c030    00000064     libcli_xwr68xx.aer4f : cli_mmwave.oer4f (.text:CLI_MMWaveLowPowerCfg)
                  0001c094    00000064     libedma_xwr68xx.aer4f : edma.oer4f (.text:EDMA_getTransferControllerErrorStatusInfo)
                  0001c0f8    00000064     libhwa_xwr68xx.aer4f : hwa.oer4f (.text:HWA_getDMAChanIndex)
                  0001c15c    00000064     libosal_xwr68xx.aer4f : SemaphoreP_tirtos.oer4f (.text:SemaphoreP_create)
                  0001c1c0    00000064     rtsv7R4_T_le_v3D16_eabi.lib : _io_perm.c.obj (.text:__TI_wrt_ok)
                  0001c224    00000064                                 : fseek.c.obj (.text:fseek)
                  0001c288    00000064     sysbios.aer4ft : exc_Exception_asm.obj (.text:ti_sysbios_family_arm_exc_Exception_initCore0__I)
                  0001c2ec    00000004     mmw_mss_per4ft.oer4ft (.text:ti_sysbios_heaps_HeapMem_Module_GateProxy_enter__E)
                  0001c2f0    00000064     sysbios.aer4ft : BIOS.obj (.text:ti_sysbios_family_arm_v7r_vim_Hwi_phantomIntHandler__I)
                  0001c354    0000000c                    : BIOS.obj (.text:ti_sysbios_family_arm_v7a_Pmu_configureCounterI__I)
                  0001c360    00000064                    : BIOS.obj (.text:ti_sysbios_knl_Clock_logTick__E)
                  0001c3c4    0000000c                    : BIOS.obj (.text:ti_sysbios_family_arm_v7a_Pmu_getCountI__E)
                  0001c3d0    00000064                    : BIOS.obj (.text:ti_sysbios_utils_Load_logCPULoad__I)
                  0001c434    0000000c     mmw_mss_per4ft.oer4ft (.text:ti_sysbios_knl_Queue_Object__get__S)
                  0001c440    00000064     sysbios.aer4ft : BIOS.obj (.text:xdc_runtime_Startup_exec__E)
                  0001c4a4    00000062     mmw_cli.oer4f (.text:MmwDemo_CLICfarFovCfg)
                  0001c506    00000002     --HOLE-- [fill = 0]
                  0001c508    00000060     libcli_xwr68xx.aer4f : cli_mmwave.oer4f (.text:CLI_MMWaveExtensionHandler)
                  0001c568    00000060     libosal_xwr68xx.aer4f : DebugP_tirtos.oer4f (.text:DebugP_log2)
                  0001c5c8    00000060                           : DebugP_tirtos.oer4f (.text:DebugP_log3)
                  0001c628    00000008     sysbios.aer4ft : BIOS.obj (.text:ti_sysbios_family_arm_v7a_Pmu_getEnabled__E)
                  0001c630    00000060                    : BIOS.obj (.text:ti_sysbios_heaps_HeapMem_alloc__E)
                  0001c690    00000060                    : BIOS.obj (.text:xdc_runtime_Assert_raise__I)
                  0001c6f0    0000005f                    : BIOS.obj (.text:xdc_runtime_Text_putLab__E)
                  0001c74f    00000001     --HOLE-- [fill = 0]
                  0001c750    0000005e     libuart_xwr68xx.aer4f : uartsci.oer4f (.text:UartSci_writeChar)
                  0001c7ae    00000002     --HOLE-- [fill = 0]
                  0001c7b0    0000005c     rtsv7R4_T_le_v3D16_eabi.lib : hostopen.c.obj (.text:HOSTopen)
                  0001c80c    0000005c                                 : hostread.c.obj (.text:HOSTread)
                  0001c868    0000005c     libmmwave_xwr68xx.aer4f : mmwave_link.oer4f (.text:MMWave_mboxOpen)
                  0001c8c4    0000005c                             : mmwave.oer4f (.text:MMWave_stop)
                  0001c920    0000005c     mss_main.oer4f (.text:MmwDemo_mmWaveCtrlTask)
                  0001c97c    0000005c     libqspiflash_xwr68xx.aer4f : qspiflash.oer4f (.text:QSPIFlashGetDeviceID)
                  0001c9d8    0000005c     libsoc_xwr68xx.aer4f : soc.oer4f (.text:SOC_enableLVDS)
                  0001ca34    0000000a     libadcbuf_xwr68xx.aer4f : ADCBuf.oer4f (.text:ADCBuf_control)
                  0001ca3e    00000002     --HOLE-- [fill = 0]
                  0001ca40    0000005c     sysbios.aer4ft : BIOS.obj (.text:ti_sysbios_utils_Load_updateCurrentThreadTime__E)
                  0001ca9c    0000005a     libuart_xwr68xx.aer4f : uartsci.oer4f (.text:UartSci_readCancel)
                  0001caf6    0000005a     libmmwavelink_xwr68xx.aer4f : rl_driver.oer4f (.text:rlDriverCalChkSum)
                  0001cb50    00000058     libdpm_xwr68xx.aer4f : dpm_core.oer4f (.text:DPM_execute)
                  0001cba8    00000058                          : dpm_mailbox.oer4f (.text:DPM_mboxInit)
                  0001cc00    00000058     libosal_xwr68xx.aer4f : DebugP_tirtos.oer4f (.text:DebugP_log0)
                  0001cc58    00000058                           : DebugP_tirtos.oer4f (.text:DebugP_log1)
                  0001ccb0    00000058     libedma_xwr68xx.aer4f : edma_low_level.oer4f (.text:EDMA3EnableChInShadowReg)
                  0001cd08    00000058     libesm_xwr68xx.aer4f : esm.oer4f (.text:ESM_highpriority_FIQ)
                  0001cd60    00000058     rtsv7R4_T_le_v3D16_eabi.lib : hostwrite.c.obj (.text:HOSTwrite)
                  0001cdb8    00000058     libhwa_xwr68xx.aer4f : hwa.oer4f (.text:HWA_getDMAconfig)
                  0001ce10    00000058     libmmwave_xwr68xx.aer4f : mmwave.oer4f (.text:MMWave_execute)
                  0001ce68    00000058                             : mmwave_link.oer4f (.text:MMWave_initCRC)
                  0001cec0    00000058     mmw_cli.oer4f (.text:MmwDemo_CLISensorStop)
                  0001cf18    00000058     mss_main.oer4f (.text:MmwDemo_EDMA_errorCallbackFxn)
                  0001cf70    00000058     mss_main.oer4f (.text:MmwDemo_EDMA_transferControllerErrorCallbackFxn)
                  0001cfc8    00000058     libqspiflash_xwr68xx.aer4f : qspiflash.oer4f (.text:QSPIFlash_configMmapWrite)
                  0001d020    00000058     libuart_xwr68xx.aer4f : uartsci_dma.oer4f (.text:UartSci_closeDMA)
                  0001d078    00000058     rtsv7R4_T_le_v3D16_eabi.lib : close.c.obj (.text:close)
                  0001d0d0    00000058     mmwdemo_flash.oer4f (.text:mmwDemo_flashRead)
                  0001d128    00000056     libmmwavelink_xwr68xx.aer4f : rl_driver.oer4f (.text:rlDriverOsiCbCheck)
                  0001d17e    00000002     --HOLE-- [fill = 0]
                  0001d180    00000054     libcrc_xwr68xx.aer4f : crc.oer4f (.text:CRC_getTransactionId)
                  0001d1d4    00000054     libdma_xwr68xx.aer4f : dma.oer4f (.text:DMA_freeChannel)
                  0001d228    00000054     libedma_xwr68xx.aer4f : edma.oer4f (.text:EDMA_error_isr)
                  0001d27c    00000054     libmmwave_xwr68xx.aer4f : mmwave_link.oer4f (.text:MMWave_initLink)
                  0001d2d0    00000054     mss_main.oer4f (.text:MmwDemo_CfgUpdate)
                  0001d324    00000054     mss_main.oer4f (.text:MmwDemo_resetStaticCfgPendingState)
                  0001d378    00000054     libqspiflash_xwr68xx.aer4f : qspiflash.oer4f (.text:QSPIFlash_writeEnable)
                  0001d3cc    00000054     rtsv7R4_T_le_v3D16_eabi.lib : _ltoa.c.obj (.text:__TI_ltoa)
                  0001d420    00000054     mmw_mss_per4ft.oer4ft (.text:ti_sysbios_family_arm_v7r_vim_Hwi_create)
                  0001d474    0000000a     libadcbuf_xwr68xx.aer4f : ADCBuf.oer4f (.text:ADCBuf_getChanBufAddr)
                  0001d47e    00000002     --HOLE-- [fill = 0]
                  0001d480    00000054     sysbios.aer4ft : BIOS.obj (.text:ti_sysbios_heaps_HeapMem_getStats__E)
                  0001d4d4    0000000a     libcbuff_xwr68xx.aer4f : cbuff_lvds.oer4f (.text:CBUFF_deinitLVDS)
                  0001d4de    00000002     --HOLE-- [fill = 0]
                  0001d4e0    00000054     sysbios.aer4ft : BIOS.obj (.text:xdc_runtime_Core_assignLabel__I)
                  0001d534    00000052     libdpedma_hwa_xwr68xx.aer4f : dpedma.oer4f (.text:DPEDMA_setup_shadow_link)
                  0001d586    00000052     rtsv7R4_T_le_v3D16_eabi.lib : _printfi.c.obj (.text:_ecpy)
                  0001d5d8    00000050     libcrc_xwr68xx.aer4f : crc.oer4f (.text:CRC_getSignature)
                  0001d628    00000050     libdpm_xwr68xx.aer4f : dpm_core.oer4f (.text:DPM_synch)
                  0001d678    00000050     libedma_xwr68xx.aer4f : edma_low_level.oer4f (.text:EDMA3MapChToEvtQ)
                  0001d6c8    00000050     libmmwave_xwr68xx.aer4f : mmwave.oer4f (.text:MMWave_sync)
                  0001d718    00000050     mmw_cli.oer4f (.text:MmwDemo_CLIMultiObjBeamForming)
                  0001d768    00000050     mmw_cli.oer4f (.text:MmwDemo_CLIQueryDemoStatus)
                  0001d7b8    00000050     rtsv7R4_T_le_v3D16_eabi.lib : _printfi.c.obj (.text:_pconv_f)
                  0001d808    00000050                                 : atoi.c.obj (.text:atoi)
                  0001d858    00000050     mss_main.oer4f (.text:mmwDemo_mssDPMTask)
                  0001d8a8    00000050     libmmwavelink_xwr68xx.aer4f : rl_driver.oer4f (.text:rlDeviceIdentifyCmdDir)
                  0001d8f8    00000050                                 : rl_driver.oer4f (.text:rlDriverVerifyCRC)
                  0001d948    00000050     rtsv7R4_T_le_v3D16_eabi.lib : u_div32.asm.obj (.text)
                  0001d998    00000008     mmw_mss_per4ft.oer4ft (.text:xdc_runtime_Text_visitRope__I)
                  0001d9a0    00000050     sysbios.aer4ft : BIOS.obj (.text:xdc_runtime_System_exit__E)
                  0001d9f0    0000004c     libcli_xwr68xx.aer4f : cli.oer4f (.text:CLI_write)
                  0001da3c    0000004c     libedma_xwr68xx.aer4f : edma.oer4f (.text:EDMA_disableChannel)
                  0001da88    0000004c                           : edma.oer4f (.text:EDMA_enableChannel)
                  0001dad4    0000004c     libhwa_xwr68xx.aer4f : hwa.oer4f (.text:HWA_enableDoneInterrupt)
                  0001db20    0000004c     libmailbox_xwr68xx.aer4f : mailbox.oer4f (.text:Mailbox_boxEmptyISRProcessing)
                  0001db6c    0000004c     libqspiflash_xwr68xx.aer4f : qspiflash_device_macronix.oer4f (.text:QSPIFlash_macronix_init)
                  0001dbb8    0000004c     libuart_xwr68xx.aer4f : uartsci.oer4f (.text:UartSci_writeCancel)
                  0001dc04    0000004c     rtsv7R4_T_le_v3D16_eabi.lib : fflush.c.obj (.text:__TI_doflush)
                  0001dc50    0000004c                                 : cpy_tbl.c.obj (.text:copy_in)
                  0001dc9c    00000004     mmw_mss_per4ft.oer4ft (.text:ti_sysbios_heaps_HeapMem_Module_GateProxy_leave__E)
                  0001dca0    0000004c     sysbios.aer4ft : BIOS.obj (.text:ti_sysbios_family_arm_v7r_vim_Hwi_getStackInfo__E)
                  0001dcec    0000004c     mmw_mss_per4ft.oer4ft (.text:ti_sysbios_knl_Task_create)
                  0001dd38    00000006     libosal_xwr68xx.aer4f : CycleprofilerP_tirtos.oer4f (.text:CycleprofilerP_getTimeStamp)
                  0001dd3e    00000002     --HOLE-- [fill = 0]
                  0001dd40    0000004c     sysbios.aer4ft : BIOS.obj (.text:ti_sysbios_knl_Task_stat__E)
                  0001dd8c    00000004     mmw_mss_per4ft.oer4ft (.text:ti_sysbios_knl_Clock_TimerProxy_getMaxTicks__E)
                  0001dd90    0000004c     sysbios.aer4ft : BIOS.obj (.text:ti_sysbios_utils_Load_taskSwitchHook__E)
                  0001dddc    0000004a     libdpm_xwr68xx.aer4f : dpm_mailbox.oer4f (.text:DPM_mboxSendResult)
                  0001de26    0000004a     libmailbox_xwr68xx.aer4f : mailbox.oer4f (.text:Mailbox_boxFullISRProcessing)
                  0001de70    0000004a     sysbios.aer4ft : BIOS.obj (.text:xdc_runtime_Core_assignParams__I)
                  0001deba    00000006     objdetrangehwa.oer4f (.text:DPC_ObjDetRangeHwa_GetRangeWinGenLen)
                  0001dec0    0000004a     sysbios.aer4ft : BIOS.obj (.text:xdc_runtime_Text_xprintf__I)
                  0001df0a    00000002     --HOLE-- [fill = 0]
                  0001df0c    00000049     mmw_lvds_stream.oer4f (.text:MmwDemo_LVDSStream_EDMAAllocateCBUFFChannel)
                  0001df55    00000001     --HOLE-- [fill = 0]
                  0001df56    00000048     libcbuff_xwr68xx.aer4f : cbuff_transfer.oer4f (.text:CBUFF_setup_USER)
                  0001df9e    00000048     libdpm_xwr68xx.aer4f : dpm_pipe.oer4f (.text:DPM_pipeRecv)
                  0001dfe6    00000002     --HOLE-- [fill = 0]
                  0001dfe8    00000048     libhwa_xwr68xx.aer4f : hwa.oer4f (.text:HWA_deleteInstance)
                  0001e030    00000048     mmwdemo_flash.oer4f (.text:mmwDemo_flashWrite)
                  0001e078    00000048     libmmwavelink_xwr68xx.aer4f : rl_device.oer4f (.text:rlDeviceGetVersion)
                  0001e0c0    00000048                                 : rl_driver.oer4f (.text:rlDriverOsiInit)
                  0001e108    00000048     mmw_mss_per4ft.oer4ft (.text:xdc_runtime_LoggerBuf_Object__create__S)
                  0001e150    00000046     libmailbox_xwr68xx.aer4f : mailbox.oer4f (.text:CSL_FINSR)
                  0001e196    00000002     --HOLE-- [fill = 0]
                  0001e198    00000044     libadcbuf_xwr68xx.aer4f : adcbuf_mmwave.oer4f (.text:ADCBUF_MMWave_close)
                  0001e1dc    00000044     libcrc_xwr68xx.aer4f : crc.oer4f (.text:CRC_resetSignature)
                  0001e220    00000044     objdetrangehwa.oer4f (.text:DPC_ObjectDetection_stop)
                  0001e264    00000044     libdpm_xwr68xx.aer4f : dpm_core.oer4f (.text:DPM_start)
                  0001e2a8    00000044                          : dpm_core.oer4f (.text:DPM_stop)
                  0001e2ec    00000044     rtsv7R4_T_le_v3D16_eabi.lib : hostclose.c.obj (.text:HOSTclose)
                  0001e330    00000044                                 : hostunlink.c.obj (.text:HOSTunlink)
                  0001e374    00000044     libmailbox_xwr68xx.aer4f : mailbox.oer4f (.text:Mailbox_boxFullISRMssDss)
                  0001e3b8    00000044     libsoc_xwr68xx.aer4f : soc_xwr68xx_mss.oer4f (.text:SOC_resetDMA)
                  0001e3fc    00000044     rtsv7R4_T_le_v3D16_eabi.lib : exit.c.obj (.text:exit)
                  0001e440    00000044                                 : getdevice.c.obj (.text:getdevice)
                  0001e484    0000000a     libdpm_xwr68xx.aer4f : dpm_core.oer4f (.text:DPM_chirpISR)
                  0001e48e    00000002     --HOLE-- [fill = 0]
                  0001e490    00000044     sysbios.aer4ft : BIOS.obj (.text:ti_sysbios_family_arm_v7r_tms570_Core_Module_startup__E)
                  0001e4d4    0000000a     libdpm_xwr68xx.aer4f : dpm_core.oer4f (.text:DPM_frameStartISR)
                  0001e4de    00000002     --HOLE-- [fill = 0]
                  0001e4e0    00000044     sysbios.aer4ft : BIOS.obj (.text:ti_sysbios_knl_Task_allBlockedFunction__I)
                  0001e524    0000000a     libosal_xwr68xx.aer4f : MemoryP_tirtos.oer4f (.text:MemoryP_ctrlFree)
                  0001e52e    00000002     --HOLE-- [fill = 0]
                  0001e530    00000044     sysbios.aer4ft : BIOS.obj (.text:xdc_runtime_LoggerBuf_Module_startup__E)
                  0001e574    0000000a     libosal_xwr68xx.aer4f : SemaphoreP_tirtos.oer4f (.text:SemaphoreP_post)
                  0001e57e    00000002     --HOLE-- [fill = 0]
                  0001e580    00000044     sysbios.aer4ft : BIOS.obj (.text:xdc_runtime_System_atexit__E)
                  0001e5c4    00000042     libcbuff_xwr68xx.aer4f : cbuff_lvds.oer4f (.text:CBUFF_closeLVDS)
                  0001e606    00000042     libedma_xwr68xx.aer4f : edma.oer4f (.text:EDMA_transferController_error_isr)
                  0001e648    00000042     libhwa_xwr68xx.aer4f : hwa.oer4f (.text:HWA_reset)
                  0001e68a    00000042     libmmwave_xwr68xx.aer4f : mmwave_link.oer4f (.text:MMWave_executeLink)
                  0001e6cc    00000042     libmmwavelink_xwr68xx.aer4f : rl_controller.oer4f (.text:rlGetSubBlock)
                  0001e70e    00000002     --HOLE-- [fill = 0]
                  0001e710    00000040     libedma_xwr68xx.aer4f : edma.oer4f (.text:EDMA_linkParamSets)
                  0001e750    00000040     libhwa_xwr68xx.aer4f : hwa.oer4f (.text:HWA_getHWAMemInfo)
                  0001e790    00000040     mmw_cli.oer4f (.text:MmwDemo_CLIClutterRemoval)
                  0001e7d0    00000040     mmw_cli.oer4f (.text:MmwDemo_CLIExtendedMaxVelocity)
                  0001e810    00000040     libqspiflash_xwr68xx.aer4f : qspiflash.oer4f (.text:QSPIFlash_progQuadRead)
                  0001e850    00000040                                : qspiflash_device_spansion.oer4f (.text:QSPIFlash_spansion_init)
                  0001e890    00000040     rtsv7R4_T_le_v3D16_eabi.lib : _printfi.c.obj (.text:_fcpy)
                  0001e8d0    00000040     libmmwavelink_xwr68xx.aer4f : rl_driver.oer4f (.text:rlDriverValidateHdr)
                  0001e910    00000040     rtsv7R4_T_le_v3D16_eabi.lib : sprintf.c.obj (.text:sprintf)
                  0001e950    00000040                                 : strtok.c.obj (.text:strtok)
                  0001e990    00000040     sysbios.aer4ft : BIOS.obj (.text:ti_sysbios_timers_rti_Timer_stop__E)
                  0001e9d0    00000040     rtsv7R4_T_le_v3D16_eabi.lib : vsnprintf.c.obj (.text:vsnprintf)
                  0001ea10    0000003e     libadcbuf_xwr68xx.aer4f : adcbuf_mmwave.oer4f (.text:CSL_FINSR)
                  0001ea4e    0000003e     libcbuff_xwr68xx.aer4f : cbuff.oer4f (.text:CSL_FINSR)
                  0001ea8c    0000003e                            : cbuff_lvds.oer4f (.text:CSL_FINSR)
                  0001eaca    0000003e     libcrc_xwr68xx.aer4f : crc.oer4f (.text:CSL_FINSR)
                  0001eb08    0000003e     libdma_xwr68xx.aer4f : dma.oer4f (.text:CSL_FINSR)
                  0001eb46    0000003e     libgpio_xwr68xx.aer4f : gpio.oer4f (.text:CSL_FINSR)
                  0001eb84    0000003e     libhwa_xwr68xx.aer4f : hwa.oer4f (.text:CSL_FINSR)
                  0001ebc2    0000003e     libpinmux_xwr68xx.aer4f : pinmux.oer4f (.text:CSL_FINSR)
                  0001ec00    0000003e     libqspi_xwr68xx.aer4f : qspi.oer4f (.text:CSL_FINSR)
                  0001ec3e    0000003e     libsoc_xwr68xx.aer4f : soc.oer4f (.text:CSL_FINSR)
                  0001ec7c    0000003e                          : soc_xwr68xx.oer4f (.text:CSL_FINSR)
                  0001ecba    0000003e                          : soc_xwr68xx_mss.oer4f (.text:CSL_FINSR)
                  0001ecf8    0000003e     libuart_xwr68xx.aer4f : uartsci.oer4f (.text:CSL_FINSR)
                  0001ed36    0000003e     libdpm_xwr68xx.aer4f : dpm_msg.oer4f (.text:DPM_msgStopHandler)
                  0001ed74    0000003e     libhwa_xwr68xx.aer4f : hwa.oer4f (.text:HWA_enable)
                  0001edb2    0000003e     libmmwave_xwr68xx.aer4f : mmwave.oer4f (.text:MMWave_decodeError)
                  0001edf0    0000003e     libuart_xwr68xx.aer4f : uartsci.oer4f (.text:UartSci_close)
                  0001ee2e    0000003e     mmwdemo_monitor.oer4f (.text:mmwDemo_cfgAnalogMonitor)
                  0001ee6c    0000003c     libcbuff_xwr68xx.aer4f : cbuff_transfer.oer4f (.text:CBUFF_configCQEDMA)
                  0001eea8    0000003c     libcli_xwr68xx.aer4f : cli_mmwave.oer4f (.text:CLI_MMWaveFlushCfg)
                  0001eee4    0000003c     libedma_xwr68xx.aer4f : edma.oer4f (.text:EDMA_chainChannels)
                  0001ef20    0000003c     libmailbox_xwr68xx.aer4f : mailbox.oer4f (.text:Mailbox_writeReset)
                  0001ef5c    0000003c     libsoc_xwr68xx.aer4f : soc_xwr68xx_mss.oer4f (.text:SOC_isSecureDevice)
                  0001ef98    0000003c                          : soc.oer4f (.text:SOC_unhaltBSS)
                  0001efd4    0000003c     rtsv7R4_T_le_v3D16_eabi.lib : trgmsg.c.obj (.text:__TI_writemsg)
                  0001f010    0000003c     sysbios.aer4ft : vim_Hwi_asm.obj (.text:ti_sysbios_family_arm_v7r_vim_Hwi_init__I)
                  0001f04c    00000004     mmw_mss_per4ft.oer4ft (.text:ti_sysbios_knl_Semaphore_delete)
                  0001f050    0000003c     sysbios.aer4ft : BIOS.obj (.text:ti_sysbios_hal_Hwi_checkStack)
                  0001f08c    00000004     mmw_mss_per4ft.oer4ft (.text:xdc_runtime_LoggerBuf_Module_GateProxy_enter__E)
                  0001f090    0000003c     sysbios.aer4ft : BIOS.obj (.text:ti_sysbios_heaps_HeapMem_init__I)
                  0001f0cc    0000003a     libhwa_xwr68xx.aer4f : hwa.oer4f (.text:HWA_setDMA2ACCManualTrig)
                  0001f106    00000002     --HOLE-- [fill = 0]
                  0001f108    0000003a     libosal_xwr68xx.aer4f : HwiP_tirtos.oer4f (.text:HwiP_delete)
                  0001f142    00000038     libcbuff_xwr68xx.aer4f : cbuff_transfer.oer4f (.text:CBUFF_addUserBufferLLEntry)
                  0001f17a    00000038                            : cbuff_transfer.oer4f (.text:CBUFF_setupHeader)
                  0001f1b2    00000002     --HOLE-- [fill = 0]
                  0001f1b4    00000038     libcli_xwr68xx.aer4f : cli_mmwave.oer4f (.text:CLI_MMWaveExtensionInit)
                  0001f1ec    00000038     objdetrangehwa.oer4f (.text:DPC_ObjectDetection_deinit)
                  0001f224    00000038     libdpm_xwr68xx.aer4f : dpm_core.oer4f (.text:DPM_notifyExecute)
                  0001f25c    00000038     libedma_xwr68xx.aer4f : edma_low_level.oer4f (.text:EDMA3ClrMissEvt)
                  0001f294    00000038     libuart_xwr68xx.aer4f : UART.oer4f (.text:UART_init)
                  0001f2cc    00000038     rtsv7R4_T_le_v3D16_eabi.lib : sscanf.c.obj (.text:sscanf)
                  0001f304    00000036     libmmwavelink_xwr68xx.aer4f : rl_controller.oer4f (.text:rlAppendSubBlock)
                  0001f33a    00000036     rtsv7R4_T_le_v3D16_eabi.lib : strncpy.c.obj (.text:strncpy)
                  0001f370    00000034     libadcbuf_xwr68xx.aer4f : ADCBuf.oer4f (.text:ADCBuf_open)
                  0001f3a4    00000034     libedma_xwr68xx.aer4f : edma.oer4f (.text:EDMA_configTransferControllerError)
                  0001f3d8    00000034     libhwa_xwr68xx.aer4f : hwa.oer4f (.text:HWA_disableDoneInterrupt)
                  0001f40c    00000034     libmmwave_xwr68xx.aer4f : mmwave_link.oer4f (.text:MMWave_mboxWrite)
                  0001f440    00000034     libsoc_xwr68xx.aer4f : soc_xwr68xx.oer4f (.text:SOC_enableHWA)
                  0001f474    00000034                          : soc_xwr68xx_mss.oer4f (.text:SOC_hasDSPCore)
                  0001f4a8    00000034                          : soc_xwr68xx.oer4f (.text:SOC_setMMWaveDSSLinkState)
                  0001f4dc    00000034                          : soc_xwr68xx.oer4f (.text:SOC_setMMWaveMSSLinkState)
                  0001f510    00000034                          : soc_xwr68xx.oer4f (.text:SOC_setMSSLinkState)
                  0001f544    00000034     libuart_xwr68xx.aer4f : UART.oer4f (.text:UART_open)
                  0001f578    00000034     rtsv7R4_T_le_v3D16_eabi.lib : fopen.c.obj (.text:__TI_cleanup)
                  0001f5ac    00000034                                 : trgmsg.c.obj (.text:__TI_readmsg)
                  0001f5e0    00000034                                 : getdevice.c.obj (.text:finddevice)
                  0001f614    0000000a     libuart_xwr68xx.aer4f : UART.oer4f (.text:UART_close)
                  0001f61e    00000002     --HOLE-- [fill = 0]
                  0001f620    00000034     sysbios.aer4ft : BIOS.obj (.text:ti_sysbios_family_arm_a15_TimestampProvider_get64__E)
                  0001f654    00000034     mmw_mss_per4ft.oer4ft (.text:ti_sysbios_knl_Semaphore_create)
                  0001f688    00000032     libcrc_xwr68xx.aer4f : crc.oer4f (.text:CRC_getCRCDataSelectBitValue)
                  0001f6ba    00000002     --HOLE-- [fill = 0]
                  0001f6bc    00000032                          : crc.oer4f (.text:CRC_getCRCTypeBitValue)
                  0001f6ee    00000032     libedma_xwr68xx.aer4f : edma.oer4f (.text:EDMA_configQueueThreshold)
                  0001f720    00000032     libhwa_xwr68xx.aer4f : hwa.oer4f (.text:HWA_allParamDoneISR)
                  0001f752    0000000e     rtsv7R4_T_le_v3D16_eabi.lib : copy_decompress_none.c.obj (.text:decompress:none:__TI_decompress_none)
                  0001f760    00000032     sysbios.aer4ft : BIOS.obj (.text:ti_sysbios_hal_Hwi_initStack)
                  0001f792    00000002     --HOLE-- [fill = 0]
                  0001f794    00000030     libadcbuf_xwr68xx.aer4f : ADCBuf.oer4f (.text:ADCBuf_init)
                  0001f7c4    00000030     libcbuff_xwr68xx.aer4f : cbuff_transfer.oer4f (.text:CBUFF_addCQLLEntry)
                  0001f7f4    00000030     libmmwave_xwr68xx.aer4f : mmwave_listlib.oer4f (.text:MMWave_listRemoveNode)
                  0001f824    00000030     libsoc_xwr68xx.aer4f : soc.oer4f (.text:SOC_getDevicePartNumber)
                  0001f854    00000030     rtsv7R4_T_le_v3D16_eabi.lib : vsnprintf.c.obj (.text:_outs)
                  0001f884    00000030     libmmwavelink_xwr68xx.aer4f : rl_sensor.oer4f (.text:rlSensorStart)
                  0001f8b4    00000030     mmw_mss_per4ft.oer4ft (.text:ti_sysbios_BIOS_startFunc__I)
                  0001f8e4    0000000a     libuart_xwr68xx.aer4f : UART.oer4f (.text:UART_read)
                  0001f8ee    00000002     --HOLE-- [fill = 0]
                  0001f8f0    00000030     sysbios.aer4ft : BIOS.obj (.text:ti_sysbios_family_arm_TaskSupport_start__E)
                  0001f920    00000030     mmw_mss_per4ft.oer4ft (.text:ti_sysbios_gates_GateHwi_Object__create__S)
                  0001f950    00000030     mmw_mss_per4ft.oer4ft (.text:ti_sysbios_gates_GateMutex_Object__create__S)
                  0001f980    00000030     mmw_mss_per4ft.oer4ft (.text:ti_sysbios_heaps_HeapMem_Object__create__S)
                  0001f9b0    00000030     sysbios.aer4ft : BIOS.obj (.text:ti_sysbios_heaps_HeapMem_free__E)
                  0001f9e0    00000030     mmw_mss_per4ft.oer4ft (.text:ti_sysbios_knl_Semaphore_construct)
                  0001fa10    0000002f     sysbios.aer4ft : BIOS.obj (.text:xdc_runtime_Text_printVisFxn__I)
                  0001fa3f    00000001     --HOLE-- [fill = 0]
                  0001fa40    0000002e     libdpm_xwr68xx.aer4f : dpm_msg.oer4f (.text:DPM_msgStartHandler)
                  0001fa6e    0000002e     objdetrangehwa.oer4f (.text:_DPC_Objdet_Assert)
                  0001fa9c    00000004     mmw_mss_per4ft.oer4ft (.text:xdc_runtime_LoggerBuf_Module_GateProxy_leave__E)
                  0001faa0    0000002e     sysbios.aer4ft : BIOS.obj (.text:ti_sysbios_knl_Semaphore_pendTimeout__I)
                  0001face    0000002e     mmw_mss_per4ft.oer4ft (.text:ti_sysbios_rts_MemAlloc_alloc)
                  0001fafc    0000002c     libdpm_xwr68xx.aer4f : dpm_pipe.oer4f (.text:DPM_pipeInit)
                  0001fb28    0000002c     libedma_xwr68xx.aer4f : edma.oer4f (.text:EDMA_validate_channelIdchannelType)
                  0001fb54    0000002c     libgpio_xwr68xx.aer4f : gpio.oer4f (.text:GPIO_HighPriorityISR)
                  0001fb80    0000002c                           : gpio.oer4f (.text:GPIO_LowPriorityISR)
                  0001fbac    0000002c     libmmwave_xwr68xx.aer4f : mmwave_osal.oer4f (.text:MMWave_osalMutexCreate)
                  0001fbd8    0000002c                             : mmwave_osal.oer4f (.text:MMWave_osalSemCreate)
                  0001fc04    0000002c     libsoc_xwr68xx.aer4f : soc_xwr68xx_mss.oer4f (.text:SOC_waitBSSPowerUp)
                  0001fc30    0000002c     libmmwavelink_xwr68xx.aer4f : rl_device.oer4f (.text:rlDeviceGetMssVersion)
                  0001fc5c    0000002c                                 : rl_sensor.oer4f (.text:rlSensorStop)
                  0001fc88    0000002c     mmw_mss_per4ft.oer4ft (.text:ti_sysbios_BIOS_atExitFunc__I)
                  0001fcb4    0000002c     mmw_mss_per4ft.oer4ft (.text:ti_sysbios_knl_Clock_doTick__I)
                  0001fce0    0000002c     mmw_mss_per4ft.oer4ft (.text:ti_sysbios_knl_Queue_construct)
                  0001fd0c    00000004     mmw_mss_per4ft.oer4ft (.text:xdc_runtime_System_Module_GateProxy_enter__E)
                  0001fd10    0000002c     sysbios.aer4ft : BIOS.obj (.text:ti_sysbios_timers_rti_Timer_periodicStub__E)
                  0001fd3c    0000002c     rtsv7R4_T_le_v3D16_eabi.lib : unlink.c.obj (.text:unlink)
                  0001fd68    0000002a     objdetrangehwa.oer4f (.text:DPC_ObjDetRangeHwa_MemPoolAlloc)
                  0001fd92    0000002a     libdpm_xwr68xx.aer4f : dpm_pipe.oer4f (.text:DPM_pipeDeinit)
                  0001fdbc    0000002a     libedma_xwr68xx.aer4f : edma.oer4f (.text:EDMA_isError)
                  0001fde6    0000002a     mmwdemo_adcconfig.oer4f (.text:MmwDemo_ADCBufOpen)
                  0001fe10    0000002a     libsoc_xwr68xx.aer4f : soc.oer4f (.text:SOC_SystemISR)
                  0001fe3a    0000002a     libmmwavelink_xwr68xx.aer4f : rl_device.oer4f (.text:rlDeviceGetMmWaveLinkVersion)
                  0001fe64    0000002a     rtsv7R4_T_le_v3D16_eabi.lib : strspn.c.obj (.text:strspn)
                  0001fe8e    00000002     --HOLE-- [fill = 0]
                  0001fe90    00000028     libcbuff_xwr68xx.aer4f : cbuff.oer4f (.text:CBUFF_ErrorISR)
                  0001feb8    00000028                            : cbuff.oer4f (.text:CBUFF_FrameStartISR)
                  0001fee0    00000028     objdetrangehwa.oer4f (.text:DPC_ObjDetRangeHwa_reconfigSubFrame)
                  0001ff08    00000028     libdpm_xwr68xx.aer4f : dpm_mailbox.oer4f (.text:DPM_mboxDeinit)
                  0001ff30    00000028                          : dpm_msg.oer4f (.text:DPM_msgInitHeader)
                  0001ff58    00000028     librangeproc_hwa_xwr68xx.aer4f : rangeprochwa.oer4f (.text:DPU_RangeProcHWA_deinit)
                  0001ff80    00000028     libmailbox_xwr68xx.aer4f : mailbox.oer4f (.text:Mailbox_Config_init)
                  0001ffa8    00000028     libqspiflash_xwr68xx.aer4f : qspiflash.oer4f (.text:QSPIFlash_getExtFlashAddr)
                  0001ffd0    00000028     libuart_xwr68xx.aer4f : uartsci_dma.oer4f (.text:UartSci_RxDMACallbackFxn)
                  0001fff8    00000028                           : uartsci_dma.oer4f (.text:UartSci_TxDMACallbackFxn)
                  00020020    00000028     rtsv7R4_T_le_v3D16_eabi.lib : lseek.c.obj (.text:lseek)
                  00020048    00000028     mmwdemo_flash.oer4f (.text:mmwDemo_flashEraseOneSector)
                  00020070    00000028     libmmwavelink_xwr68xx.aer4f : rl_driver.oer4f (.text:rlDriverConstructInMsg)
                  00020098    00000006     libdpm_xwr68xx.aer4f : dpm_mailbox.oer4f (.text:DPM_mboxSynch)
                  0002009e    00000002     --HOLE-- [fill = 0]
                  000200a0    00000028     sysbios.aer4ft : BIOS.obj (.text:ti_sysbios_knl_Idle_run__E)
                  000200c8    00000028     rtsv7R4_T_le_v3D16_eabi.lib : write.c.obj (.text:write)
                  000200f0    00000028     sysbios.aer4ft : BIOS.obj (.text:xdc_runtime_SysStd_abort__E)
                  00020118    00000006     libedma_xwr68xx.aer4f : edma_low_level.oer4f (.text:EDMA3ClrCCErr)
                  0002011e    00000002     --HOLE-- [fill = 0]
                  00020120    00000028     sysbios.aer4ft : BIOS.obj (.text:xdc_runtime_System_aprintf_va__F)
                  00020148    00000026     rtsv7R4_T_le_v3D16_eabi.lib : memccpy.c.obj (.text:memccpy)
                  0002016e    00000026                                 : memcmp.c.obj (.text:memcmp)
                  00020194    00000026     mmwdemo_monitor.oer4f (.text:mmwDemo_cfgRxSaturationMonitor)
                  000201ba    00000026     libmmwavelink_xwr68xx.aer4f : rl_monitoring.oer4f (.text:rlRfAnaMonConfig)
                  000201e0    00000026                                 : rl_sensor.oer4f (.text:rlRfGetTemperatureReport)
                  00020206    00000026                                 : rl_sensor.oer4f (.text:rlRfInitCalibConfig)
                  0002022c    00000026                                 : rl_sensor.oer4f (.text:rlRfRunTimeCalibConfig)
                  00020252    00000026                                 : rl_monitoring.oer4f (.text:rlRfRxIfSatMonConfig)
                  00020278    00000026                                 : rl_monitoring.oer4f (.text:rlRfRxSigImgMonConfig)
                  0002029e    00000026                                 : rl_sensor.oer4f (.text:rlRfSetCalMonFreqLimitConfig)
                  000202c4    00000026                                 : rl_sensor.oer4f (.text:rlRfSetDeviceCfg)
                  000202ea    00000026                                 : rl_sensor.oer4f (.text:rlRfSetLdoBypassConfig)
                  00020310    00000026                                 : rl_sensor.oer4f (.text:rlSetAdcOutConfig)
                  00020336    00000026                                 : rl_sensor.oer4f (.text:rlSetBpmCommonConfig)
                  0002035c    00000026                                 : rl_sensor.oer4f (.text:rlSetChannelConfig)
                  00020382    00000026                                 : rl_sensor.oer4f (.text:rlSetContModeConfig)
                  000203a8    00000006     libedma_xwr68xx.aer4f : edma_low_level.oer4f (.text:EDMA3ErrIntrHighStatusGet)
                  000203ae    00000002     --HOLE-- [fill = 0]
                  000203b0    00000026     sysbios.aer4ft : BIOS.obj (.text:xdc_runtime_System_printf_va__F)
                  000203d6    00000002     --HOLE-- [fill = 0]
                  000203d8    00000025     mss_main.oer4f (.text:_MmwDemo_debugAssert)
                  000203fd    00000001     --HOLE-- [fill = 0]
                  000203fe    00000024     libcrc_xwr68xx.aer4f : crc.oer4f (.text:CRC_isTransactionIdValid)
                  00020422    00000002     --HOLE-- [fill = 0]
                  00020424    00000024     libedma_xwr68xx.aer4f : edma_low_level.oer4f (.text:EDMA3ClrEvt)
                  00020448    00000024                           : edma_low_level.oer4f (.text:EDMA3ClrIntr)
                  0002046c    00000024                           : edma_low_level.oer4f (.text:EDMA3DisableDmaEvt)
                  00020490    00000024                           : edma_low_level.oer4f (.text:EDMA3DisableEvtIntr)
                  000204b4    00000024                           : edma_low_level.oer4f (.text:EDMA3EnableDmaEvt)
                  000204d8    00000024                           : edma_low_level.oer4f (.text:EDMA3EnableEvtIntr)
                  000204fc    00000024                           : edma.oer4f (.text:EDMA_clearTransferControllerErrors)
                  00020520    00000024     libgpio_xwr68xx.aer4f : gpio.oer4f (.text:GPIO_processInterrupt)
                  00020544    00000024     libhsiheader_xwr68xx.aer4f : hsiheader.oer4f (.text:HSIHeader_processUserBuffer)
                  00020568    00000024     libsoc_xwr68xx.aer4f : soc_xwr68xx.oer4f (.text:SOC_isDSSOperational)
                  0002058c    00000024                          : soc_xwr68xx.oer4f (.text:SOC_isMMWaveDSSOperational)
                  000205b0    00000024                          : soc_xwr68xx.oer4f (.text:SOC_isMMWaveMSSOperational)
                  000205d4    00000024     libmmwavelink_xwr68xx.aer4f : rl_device.oer4f (.text:rlDeviceSetHsiClk)
                  000205f8    00000024                                 : rl_sensor.oer4f (.text:rlEnableContMode)
                  0002061c    00000024                                 : rl_sensor.oer4f (.text:rlRfSetCalMonTimeUnitConfig)
                  00020640    00000024                                 : rl_sensor.oer4f (.text:rlSetLowPowerModeConfig)
                  00020664    00000024     mmw_mss_per4ft.oer4ft (.text:ti_sysbios_BIOS_registerRTSLock__I)
                  00020688    00000024     mmw_mss_per4ft.oer4ft (.text:ti_sysbios_BIOS_removeRTSLock__I)
                  000206ac    00000024     mmw_mss_per4ft.oer4ft (.text:ti_sysbios_gates_GateMutex_Object__delete__S)
                  000206d0    00000024     sysbios.aer4ft : BIOS.obj (.text:ti_sysbios_knl_Clock_Module_startup__E)
                  000206f4    00000024     mmw_mss_per4ft.oer4ft (.text:ti_sysbios_knl_Semaphore_Object__delete__S)
                  00020718    00000022     libcbuff_xwr68xx.aer4f : cbuff_transfer.oer4f (.text:CBUFF_initLinkedList)
                  0002073a    00000022     libqspiflash_xwr68xx.aer4f : qspiflash.oer4f (.text:QSPIFlashReadCmd)
                  0002075c    00000022     libuart_xwr68xx.aer4f : uartsci.oer4f (.text:UartSci_disableRxDMA)
                  0002077e    00000022                           : uartsci.oer4f (.text:UartSci_enableRxDMA)
                  000207a0    00000022     rtsv7R4_T_le_v3D16_eabi.lib : strcspn.c.obj (.text:strcspn)
                  000207c2    00000020     libdpm_xwr68xx.aer4f : dpm_listlib.oer4f (.text:DPM_listCat)
                  000207e2    00000002     --HOLE-- [fill = 0]
                  000207e4    00000020     libedma_xwr68xx.aer4f : edma_low_level.oer4f (.text:EDMA3QdmaClrMissEvt)
                  00020804    00000020     libesm_xwr68xx.aer4f : esm.oer4f (.text:ESM_lowpriority_IRQ)
                  00020824    00000020     libhsiheader_xwr68xx.aer4f : hsiheader.oer4f (.text:HSIHeader_processCQ)
                  00020844    00000020     libmmwave_xwr68xx.aer4f : mmwave_listlib.oer4f (.text:MMWave_listCat)
                  00020864    00000020     libpinmux_xwr68xx.aer4f : pinmux.oer4f (.text:Pinmux_Unlock)
                  00020884    00000020     rtsv7R4_T_le_v3D16_eabi.lib : s_copysign.c.obj (.text:copysign)
                  000208a4    00000020     libmmwavelink_xwr68xx.aer4f : rl_sensor.oer4f (.text:rlRfInit)
                  000208c4    0000000a     libuart_xwr68xx.aer4f : UART.oer4f (.text:UART_write)
                  000208ce    00000002     --HOLE-- [fill = 0]
                  000208d0    00000020     sysbios.aer4ft : BIOS.obj (.text:ti_sysbios_family_arm_TaskSupport_stackUsed__E)
                  000208f0    00000020                    : BIOS.obj (.text:ti_sysbios_family_arm_a15_TimestampProvider_autoRefreshFxn__I)
                  00020910    00000020                    : BIOS.obj (.text:ti_sysbios_family_arm_v7a_Pmu_Module_startup__E)
                  00020930    00000020     mmw_mss_per4ft.oer4ft (.text:ti_sysbios_family_arm_v7r_vim_Hwi_Object__delete__S)
                  00020950    00000020     sysbios.aer4ft : BIOS.obj (.text:ti_sysbios_family_arm_v7r_vim_Hwi_disableInterrupt__E)
                  00020970    00000020                    : BIOS.obj (.text:ti_sysbios_family_arm_v7r_vim_Hwi_enableInterrupt__E)
                  00020990    00000020     mmw_mss_per4ft.oer4ft (.text:ti_sysbios_gates_GateHwi_Object__delete__S)
                  000209b0    00000020     mmw_mss_per4ft.oer4ft (.text:ti_sysbios_heaps_HeapMem_Object__delete__S)
                  000209d0    00000020     mmw_mss_per4ft.oer4ft (.text:ti_sysbios_knl_Semaphore_destruct)
                  000209f0    00000020     mmw_mss_per4ft.oer4ft (.text:xdc_runtime_LoggerBuf_Object__delete__S)
                  00020a10    0000001e     libdpm_xwr68xx.aer4f : dpm_pipe.oer4f (.text:DPM_pipeDequeue)
                  00020a2e    0000001e     libmmwave_xwr68xx.aer4f : mmwave_fullcfg.oer4f (.text:MMWave_internalDelChirp)
                  00020a4c    0000001e     libsoc_xwr68xx.aer4f : soc_xwr68xx_mss.oer4f (.text:SOC_getOutAddr_LUTType)
                  00020a6a    0000001e     mmwdemo_monitor.oer4f (.text:mmwDemo_cfgRxSigImgMonitor)
                  00020a88    0000001e     mmw_mss_per4ft.oer4ft (.text:ti_sysbios_BIOS_errorRaiseHook__I)
                  00020aa6    0000001c     libcrc_xwr68xx.aer4f : crc.oer4f (.text:CRC_releaseTransactionId)
                  00020ac2    0000001c     libadcbuf_xwr68xx.aer4f : adcbuf_mmwave.oer4f (.text:CSL_FEXTR)
                  00020ade    0000001c     libcbuff_xwr68xx.aer4f : cbuff.oer4f (.text:CSL_FEXTR)
                  00020afa    0000001c                            : cbuff_lvds.oer4f (.text:CSL_FEXTR)
                  00020b16    0000001c     libdma_xwr68xx.aer4f : dma.oer4f (.text:CSL_FEXTR)
                  00020b32    0000001c     libhsiheader_xwr68xx.aer4f : hsiheader.oer4f (.text:CSL_FEXTR)
                  00020b4e    0000001c     libhwa_xwr68xx.aer4f : hwa.oer4f (.text:CSL_FEXTR)
                  00020b6a    0000001c     libmmwave_xwr68xx.aer4f : mmwave.oer4f (.text:CSL_FEXTR)
                  00020b86    0000001c     libsoc_xwr68xx.aer4f : soc.oer4f (.text:CSL_FEXTR)
                  00020ba2    0000001c                          : soc_xwr68xx.oer4f (.text:CSL_FEXTR)
                  00020bbe    0000001c                          : soc_xwr68xx_mss.oer4f (.text:CSL_FEXTR)
                  00020bda    0000001c     libuart_xwr68xx.aer4f : uartsci.oer4f (.text:CSL_FEXTR)
                  00020bf6    0000001c     libdpm_xwr68xx.aer4f : dpm_listlib.oer4f (.text:DPM_listRemove)
                  00020c12    0000001c     libmmwave_xwr68xx.aer4f : mmwave_listlib.oer4f (.text:MMWave_listRemove)
                  00020c2e    00000002     --HOLE-- [fill = 0]
                  00020c30    0000001c     mss_main.oer4f (.text:MmwDemo_DPC_ObjectDetection_processFrameBeginCallBackFxn)
                  00020c4c    0000001c     mss_main.oer4f (.text:MmwDemo_DPC_ObjectDetection_processInterFrameCallBackFxn)
                  00020c68    0000001c     libsoc_xwr68xx.aer4f : soc_xwr68xx_mss.oer4f (.text:SOC_getInAddr_LUTType)
                  00020c84    0000001c     sysbios.aer4ft : arm_TaskSupport_asm.obj (.text:_ti_sysbios_family_arm_TaskSupport_glue)
                  00020ca0    0000001c                    : arm_TaskSupport_asm.obj (.text:_ti_sysbios_family_arm_TaskSupport_swap__E)
                  00020cbc    0000001c     mmw_mss_per4ft.oer4ft (.text:ti_sysbios_BIOS_rtsLock__I)
                  00020cd8    00000006     libedma_xwr68xx.aer4f : edma_low_level.oer4f (.text:EDMA3GetCCErrStatus)
                  00020cde    00000002     --HOLE-- [fill = 0]
                  00020ce0    0000001c     sysbios.aer4ft : BIOS.obj (.text:ti_sysbios_family_arm_v7r_vim_Hwi_clearInterrupt__E)
                  00020cfc    00000004     mmw_mss_per4ft.oer4ft (.text:xdc_runtime_System_Module_GateProxy_leave__E)
                  00020d00    0000001c     sysbios.aer4ft : BIOS.obj (.text:ti_sysbios_gates_GateMutex_Instance_init__E)
                  00020d1c    00000004     --HOLE-- [fill = 0]
                  00020d20    0000001c                    : BIOS.obj (.text:ti_sysbios_gates_GateMutex_leave__E)
                  00020d3c    0000001c     mmw_mss_per4ft.oer4ft (.text:ti_sysbios_knl_Queue_destruct)
                  00020d58    00000006     libedma_xwr68xx.aer4f : edma_low_level.oer4f (.text:EDMA3GetErrIntrStatus)
                  00020d5e    00000002     --HOLE-- [fill = 0]
                  00020d60    0000001c     sysbios.aer4ft : BIOS.obj (.text:ti_sysbios_knl_Task_restoreHwi__E)
                  00020d7c    00000004     --HOLE-- [fill = 0]
                  00020d80    0000001c                    : BIOS.obj (.text:xdc_runtime_LoggerBuf_Instance_finalize__E)
                  00020d9c    0000001a     libcbuff_xwr68xx.aer4f : cbuff_lvds.oer4f (.text:CBUFF_finalizeLVDSLinkListParams)
                  00020db6    0000001a     libdpm_xwr68xx.aer4f : dpm_listlib.oer4f (.text:DPM_listAdd)
                  00020dd0    0000001a                          : dpm_mailbox.oer4f (.text:DPM_mboxMsgSend)
                  00020dea    0000001a                          : dpm_msg.oer4f (.text:DPM_msgAssertHandler)
                  00020e04    0000001a                          : dpm_msg.oer4f (.text:DPM_msgDPCInfoHandler)
                  00020e1e    0000001a     libedma_xwr68xx.aer4f : edma_low_level.oer4f (.text:EDMA3SetPaRAM)
                  00020e38    0000001a     libmmwave_xwr68xx.aer4f : mmwave_dualcore.oer4f (.text:MMWave_deviceSyncFxn)
                  00020e52    0000001a                             : mmwave.oer4f (.text:MMWave_encodeError)
                  00020e6c    0000001a                             : mmwave_listlib.oer4f (.text:MMWave_listAdd)
                  00020e86    0000001a     rtsv7R4_T_le_v3D16_eabi.lib : sprintf.c.obj (.text:_outs)
                  00020ea0    0000001a     mmw_mss_per4ft.oer4ft (.text:free)
                  00020eba    0000001a     libmmwavelink_xwr68xx.aer4f : rl_sensor.oer4f (.text:rlGetRfDieId)
                  00020ed4    0000001a     sysbios.aer4ft : a15_TimestampProvider_asm.obj (.text:ti_sysbios_family_arm_a15_TimestampProvider_initCCNT__I)
                  00020eee    0000001a     mmw_mss_per4ft.oer4ft (.text:xdc_runtime_System_aprintf__E)
                  00020f08    0000001a     mmw_mss_per4ft.oer4ft (.text:xdc_runtime_System_printf__E)
                  00020f22    00000018     libadcbuf_xwr68xx.aer4f : adcbuf_mmwave.oer4f (.text:ADCBUFContinuousModeCtrl)
                  00020f3a    00000002     --HOLE-- [fill = 0]
                  00020f3c    00000018     libcli_xwr68xx.aer4f : cli_mmwave.oer4f (.text:CLI_getMMWaveExtensionOpenConfig)
                  00020f54    00000018     libcbuff_xwr68xx.aer4f : cbuff_transfer.oer4f (.text:CSL_FINSR)
                  00020f6c    00000018     objdetrangehwa.oer4f (.text:DPC_ObjDetRangeHwa_GenRangeWindow)
                  00020f84    00000018     libdpm_xwr68xx.aer4f : dpm_msg.oer4f (.text:DPM_msgBSSFaultHandler)
                  00020f9c    00000018     libedma_xwr68xx.aer4f : edma_low_level.oer4f (.text:EDMA3DisableQdmaEvt)
                  00020fb4    00000018                           : edma_low_level.oer4f (.text:EDMA3EnableQdmaEvt)
                  00020fcc    00000018     libmmwave_xwr68xx.aer4f : mmwave_osal.oer4f (.text:MMWave_osalMutexLock)
                  00020fe4    00000018                             : mmwave_osal.oer4f (.text:MMWave_osalSemWait)
                  00020ffc    00000018     libmailbox_xwr68xx.aer4f : mailbox.oer4f (.text:Mailbox_boxEmptyISRBss)
                  00021014    00000018                              : mailbox.oer4f (.text:Mailbox_boxEmptyISRMssDss)
                  0002102c    00000018                              : mailbox.oer4f (.text:Mailbox_boxFullISRBss)
                  00021044    00000018     mmw_cli.oer4f (.text:MmwDemo_CLIResetSystem)
                  0002105c    00000018     rtsv7R4_T_le_v3D16_eabi.lib : args_main.c.obj (.text:_args_main)
                  00021074    00000018                                 : vsnprintf.c.obj (.text:_outc)
                  0002108c    00000018     libmmwavelink_xwr68xx.aer4f : rl_device.oer4f (.text:rlDeviceGetRfVersion)
                  000210a4    00000018                                 : rl_driver.oer4f (.text:rlDriverCalCRC)
                  000210bc    00000018                                 : rl_driver.oer4f (.text:rlDriverFillPayload)
                  000210d4    00000018     rtsv7R4_T_le_v3D16_eabi.lib : ll_mul_t2.asm.obj (.text)
                  000210ec    00000018                                 : strcmp.c.obj (.text:strcmp)
                  00021104    00000018                                 : strrchr.c.obj (.text:strrchr)
                  0002111c    00000018     mmw_mss_per4ft.oer4ft (.text:ti_sysbios_BIOS_rtsUnlock__I)
                  00021134    00000018     sysbios.aer4ft : BIOS.obj (.text:ti_sysbios_family_arm_v7a_Pmu_initCounters__I)
                  0002114c    00000018     mmw_mss_per4ft.oer4ft (.text:ti_sysbios_family_arm_v7r_vim_Hwi_Module__startupDone__F)
                  00021164    00000018     mmw_mss_per4ft.oer4ft (.text:ti_sysbios_family_arm_v7r_vim_Hwi_Params__init__S)
                  0002117c    00000018     mmw_mss_per4ft.oer4ft (.text:ti_sysbios_gates_GateHwi_Handle__label__S)
                  00021194    00000018     mmw_mss_per4ft.oer4ft (.text:ti_sysbios_gates_GateMutex_Handle__label__S)
                  000211ac    00000018     mmw_mss_per4ft.oer4ft (.text:ti_sysbios_heaps_HeapMem_Handle__label__S)
                  000211c4    00000018     mmw_mss_per4ft.oer4ft (.text:ti_sysbios_knl_Semaphore_Params__init__S)
                  000211dc    00000018     mmw_mss_per4ft.oer4ft (.text:ti_sysbios_knl_Task_Params__init__S)
                  000211f4    0000000a     libuart_xwr68xx.aer4f : UART.oer4f (.text:UART_writePolling)
                  000211fe    00000002     --HOLE-- [fill = 0]
                  00021200    00000018     sysbios.aer4ft : BIOS.obj (.text:ti_sysbios_knl_Task_enter__I)
                  00021218    00000018     mmw_mss_per4ft.oer4ft (.text:ti_sysbios_timers_rti_Timer_Module__startupDone__F)
                  00021230    00000018     sysbios.aer4ft : BIOS.obj (.text:xdc_runtime_Error_init__E)
                  00021248    00000018     mmw_mss_per4ft.oer4ft (.text:xdc_runtime_LoggerBuf_Handle__label__S)
                  00021260    00000016     libcbuff_xwr68xx.aer4f : cbuff_transfer.oer4f (.text:CBUFF_shutdownTransfer)
                  00021276    00000016     librangeproc_hwa_xwr68xx.aer4f : rangeprochwa.oer4f (.text:rangeProcHWA_EDMA_transferCompletionCallbackFxn)
                  0002128c    00000016     rtsv7R4_T_le_v3D16_eabi.lib : strchr.c.obj (.text:strchr)
                  000212a2    00000016                                 : strlen.c.obj (.text:strlen)
                  000212b8    00000016     mmw_mss_per4ft.oer4ft (.text:ti_sysbios_BIOS_exitFunc__I)
                  000212ce    00000002     --HOLE-- [fill = 0]
                  000212d0    00000016     sysbios.aer4ft : BIOS.obj (.text:ti_sysbios_knl_Idle_loop__E)
                  000212e6    0000000a     rtsv7R4_T_le_v3D16_eabi.lib : sprintf.c.obj (.text:_outc)
                  000212f0    00000016     sysbios.aer4ft : BIOS.obj (.text:ti_sysbios_knl_Task_sleepTimeout__I)
                  00021306    00000014     libosal_xwr68xx.aer4f : CycleprofilerP_tirtos.oer4f (.text:CycleprofilerP_init)
                  0002131a    00000002     --HOLE-- [fill = 0]
                  0002131c    00000014     libedma_xwr68xx.aer4f : edma_low_level.oer4f (.text:EDMA3GetIntrStatus)
                  00021330    00000014                           : edma_low_level.oer4f (.text:EDMA3IntrStatusHighGet)
                  00021344    00000014                           : edma_low_level.oer4f (.text:EDMA3MapQdmaChToPaRAM)
                  00021358    00000014     libosal_xwr68xx.aer4f : HwiP_tirtos.oer4f (.text:HwiP_Params_init)
                  0002136c    00000014     libmmwave_xwr68xx.aer4f : mmwave_fullcfg.oer4f (.text:MMWave_internalDelBpmChirp)
                  00021380    00000014                             : mmwave_fullcfg.oer4f (.text:MMWave_internalDelProfile)
                  00021394    00000014                             : mmwave_osal.oer4f (.text:MMWave_osalMutexDelete)
                  000213a8    00000014                             : mmwave_osal.oer4f (.text:MMWave_osalSemDelete)
                  000213bc    00000014     mmwdemo_rfparser.oer4f (.text:MmwDemo_RFParser_getNumSubFrames)
                  000213d0    00000014     libpinmux_xwr68xx.aer4f : pinmux.oer4f (.text:Pinmux_Lock)
                  000213e4    00000014     libuart_xwr68xx.aer4f : uartsci.oer4f (.text:UartSci_disableTxDMA)
                  000213f8    00000014                           : uartsci.oer4f (.text:UartSci_enableTxDMA)
                  0002140c    00000014     libosal_xwr68xx.aer4f : DebugP_tirtos.oer4f (.text:_DebugP_assert)
                  00021420    00000014     libmathutils.aer4f : mathutils.oer4f (.text:mathUtils_ceilLog2)
                  00021434    00000014     libmmwavelink_xwr68xx.aer4f : rl_controller.oer4f (.text:rlAppendDummy)
                  00021448    00000014                                 : rl_driver.oer4f (.text:rlDriverIsDeviceMapValid)
                  0002145c    00000014     rtsv7R4_T_le_v3D16_eabi.lib : strcpy.c.obj (.text:strcpy)
                  00021470    00000014     mmw_mss_per4ft.oer4ft (.text:ti_sysbios_heaps_HeapMem_Object__get__S)
                  00021484    00000014     mmw_mss_per4ft.oer4ft (.text:xdc_runtime_LoggerBuf_Object__get__S)
                  00021498    00000012     libcrc_xwr68xx.aer4f : crc.oer4f (.text:CRC_initConfigParams)
                  000214aa    00000012     libedma_xwr68xx.aer4f : edma_low_level.oer4f (.text:EDMA3SetQdmaTrigWord)
                  000214bc    00000012     libmmwave_xwr68xx.aer4f : mmwave_dualcore.oer4f (.text:MMWave_deviceGetDeviceInfo)
                  000214ce    00000012     libosal_xwr68xx.aer4f : MemoryP_tirtos.oer4f (.text:MemoryP_ctrlAlloc)
                  000214e0    00000012                           : SemaphoreP_tirtos.oer4f (.text:SemaphoreP_pend)
                  000214f2    00000012     rtsv7R4_T_le_v3D16_eabi.lib : sscanf.c.obj (.text:_inpchar)
                  00021504    00000012     libmathutils.aer4f : mathutils.oer4f (.text:mathUtils_pow2roundup)
                  00021516    0000000a                        : mathutils.oer4f (.text:mathUtils_floorLog2)
                  00021520    00000012     sysbios.aer4ft : BIOS.obj (.text:ti_sysbios_hal_Hwi_Module_startup__E)
                  00021532    00000012     rtsv7R4_T_le_v3D16_eabi.lib : wcslen.c.obj (.text:wcslen)
                  00021544    0000000a     sysbios.aer4ft : tms570_Core_asm.obj (.text:ti_sysbios_family_arm_v7r_tms570_Core_getId__E)
                  0002154e    00000002     --HOLE-- [fill = 0]
                  00021550    00000012                    : BIOS.obj (.text:xdc_runtime_LoggerBuf_write1__E)
                  00021562    0000000e                    : a15_TimestampProvider_asm.obj (.text:ti_sysbios_family_arm_a15_TimestampProvider_getOverflowCCNT__I)
                  00021570    00000012                    : BIOS.obj (.text:xdc_runtime_LoggerBuf_write2__E)
                  00021582    00000012     mmw_mss_per4ft.oer4ft (.text:xdc_runtime_Startup_exec__I)
                  00021594    00000010     libadcbuf_xwr68xx.aer4f : ADCBuf.oer4f (.text:ADCBuf_Params_init)
                  000215a4    00000010     libcli_xwr68xx.aer4f : cli_mmwave.oer4f (.text:CLI_getMMWaveExtensionConfig)
                  000215b4    00000010     libcrc_xwr68xx.aer4f : crc.oer4f (.text:CRC_getSignatureRegister)
                  000215c4    00000010     libqspiflash_xwr68xx.aer4f : qspiflash.oer4f (.text:QSPIFlashWriteCmd)
                  000215d4    00000010     libqspi_xwr68xx.aer4f : qspi.oer4f (.text:QSPI_Params_init)
                  000215e4    0000000a     mmw_mss_per4ft.oer4ft (.text:xdc_runtime_IHeap_alloc)
                  000215ee    00000002     --HOLE-- [fill = 0]
                  000215f0    00000010     sysbios.aer4ft : BIOS.obj (.text:ti_sysbios_BIOS_getCpuFreq__E)
                  00021600    00000010                    : BIOS.obj (.text:ti_sysbios_BIOS_setThreadType__E)
                  00021610    00000010                    : BIOS.obj (.text:ti_sysbios_BIOS_start__E)
                  00021620    00000010                    : BIOS.obj (.text:ti_sysbios_family_arm_a15_TimestampProvider_Module_startup__E)
                  00021630    00000010                    : BIOS.obj (.text:ti_sysbios_family_arm_v7a_Pmu_disableInterruptI__E)
                  00021640    00000010                    : BIOS.obj (.text:ti_sysbios_family_arm_v7a_Pmu_enableInterruptI__E)
                  00021650    00000010                    : BIOS.obj (.text:ti_sysbios_family_arm_v7a_Pmu_getNumCounters__E)
                  00021660    00000010                    : BIOS.obj (.text:ti_sysbios_family_arm_v7a_Pmu_startCounterI__E)
                  00021670    00000010                    : BIOS.obj (.text:ti_sysbios_family_arm_v7a_Pmu_stopCounterI__E)
                  00021680    00000010                    : BIOS.obj (.text:ti_sysbios_gates_GateMutex_Instance_finalize__E)
                  00021690    00000010     mmw_mss_per4ft.oer4ft (.text:ti_sysbios_heaps_HeapBuf_Object__get__S)
                  000216a0    00000010     sysbios.aer4ft : BIOS.obj (.text:ti_sysbios_knl_Semaphore_Instance_finalize__E)
                  000216b0    00000010     mmw_mss_per4ft.oer4ft (.text:ti_sysbios_knl_Task_Object__get__S)
                  000216c0    00000010     sysbios.aer4ft : BIOS.obj (.text:ti_sysbios_knl_Task_disable__E)
                  000216d0    00000010                    : BIOS.obj (.text:xdc_runtime_LoggerBuf_write0__E)
                  000216e0    00000010                    : BIOS.obj (.text:xdc_runtime_Memory_free__E)
                  000216f0    00000010                    : BIOS.obj (.text:xdc_runtime_Memory_getStats__E)
                  00021700    0000000e                    : BIOS.obj (.text:ti_sysbios_knl_Queue_empty__E)
                  0002170e    00000002     --HOLE-- [fill = 0]
                  00021710    0000000c                    : BIOS.obj (.text:ti_sysbios_family_arm_TaskSupport_checkStack__E)
                  0002171c    00000004     --HOLE-- [fill = 0]
                  00021720    0000000c                    : BIOS.obj (.text:ti_sysbios_family_arm_TaskSupport_getStackAlignment__E)
                  0002172c    00000004     --HOLE-- [fill = 0]
                  00021730    0000000c                    : BIOS.obj (.text:ti_sysbios_family_arm_exc_Exception_Module_startup__E)
                  0002173c    00000004     --HOLE-- [fill = 0]
                  00021740    0000000c                    : BIOS.obj (.text:ti_sysbios_family_arm_v7r_vim_Hwi_switchFromBootStack__E)
                  0002174c    00000004     --HOLE-- [fill = 0]
                  00021750    0000000c                    : BIOS.obj (.text:ti_sysbios_utils_Load_getCPULoad__E)
                  0002175c    00000004     --HOLE-- [fill = 0]
                  00021760    0000000c                    : BIOS.obj (.text:ti_sysbios_utils_Load_taskRegHook__E)
                  0002176c    00000004     --HOLE-- [fill = 0]
                  00021770    0000000c                    : BIOS.obj (.text:xdc_runtime_Startup_rtsDone__E)
                  0002177c    00000004     --HOLE-- [fill = 0]
                  00021780    0000000c                    : BIOS.obj (.text:xdc_runtime_SysStd_exit__E)
                  0002178c    0000000a     mmw_mss_per4ft.oer4ft (.text:xdc_runtime_IHeap_free)
                  00021796    0000000a     mmw_mss_per4ft.oer4ft (.text:xdc_runtime_IHeap_getStats)
                  000217a0    0000000a     sysbios.aer4ft : BIOS.obj (.text:xdc_runtime_LoggerBuf_disable__E)
                  000217aa    00000006     libedma_xwr68xx.aer4f : edma_low_level.oer4f (.text:EDMA3QdmaGetErrIntrStatus)
                  000217b0    0000000a     sysbios.aer4ft : BIOS.obj (.text:xdc_runtime_LoggerBuf_enable__E)
                  000217ba    00000006     libosal_xwr68xx.aer4f : HwiP_tirtos.oer4f (.text:HwiP_restore)
                  000217c0    00000008     sysbios.aer4ft : BIOS.obj (.text:ti_sysbios_gates_GateHwi_enter__E)
                  000217c8    00000006     libmmwavelink_xwr68xx.aer4f : rl_controller.oer4f (.text:rlGetSubBlockId)
                  000217ce    00000006                                 : rl_controller.oer4f (.text:rlGetSubBlockLen)
                  000217d4    00000006     sysbios.aer4ft : a15_TimestampProvider_asm.obj (.text:ti_sysbios_family_arm_a15_TimestampProvider_get32__E)
                  000217da    00000006     --HOLE-- [fill = 0]
                  000217e0    00000006                    : BIOS.obj (.text:ti_sysbios_family_arm_v7r_vim_Hwi_startup__E)
                  000217e6    0000000a     --HOLE-- [fill = 0]
                  000217f0    00000006                    : BIOS.obj (.text:ti_sysbios_gates_GateHwi_leave__E)
                  000217f6    0000000a     --HOLE-- [fill = 0]
                  00021800    00000006                    : BIOS.obj (.text:ti_sysbios_heaps_HeapMem_isBlocking__E)
                  00021806    0000000a     --HOLE-- [fill = 0]
                  00021810    00000006                    : BIOS.obj (.text:ti_sysbios_knl_Queue_Instance_init__E)
                  00021816    0000000a     --HOLE-- [fill = 0]
                  00021820    00000006                    : BIOS.obj (.text:xdc_runtime_System_Module_startup__E)
                  00021826    0000000a     --HOLE-- [fill = 0]
                  00021830    00000004                    : BIOS.obj (.text:ti_sysbios_gates_GateHwi_query__E)
                  00021834    0000000c     --HOLE-- [fill = 0]
                  00021840    00000004                    : BIOS.obj (.text:ti_sysbios_gates_GateMutex_query__E)
                  00021844    0000000c     --HOLE-- [fill = 0]
                  00021850    00000004                    : BIOS.obj (.text:ti_sysbios_knl_Task_startup__E)
                  00021854    0000000c     --HOLE-- [fill = 0]
                  00021860    00000004                    : BIOS.obj (.text:ti_sysbios_timers_rti_Timer_getMaxTicks__E)
                  00021864    0000000c     --HOLE-- [fill = 0]
                  00021870    00000004                    : BIOS.obj (.text:xdc_runtime_SysStd_putch__E)
                  00021874    0000000c     --HOLE-- [fill = 0]
                  00021880    00000004                    : BIOS.obj (.text:xdc_runtime_SysStd_ready__E)
                  00021884    0000000c     --HOLE-- [fill = 0]
                  00021890    00000002                    : BIOS.obj (.text:ti_sysbios_BIOS_linkedWithIncorrectBootLibrary__E)
                  00021892    0000000e     --HOLE-- [fill = 0]
                  000218a0    00000002                    : BIOS.obj (.text:ti_sysbios_gates_GateHwi_Instance_init__E)

.const     0    000218a8    000011d4     
                  000218a8    000002b8     libmmwavelink_xwr68xx.aer4f : rl_sensor.oer4f (.const:$O1$$)
                  00021b60    000001ee     mmw_cli.oer4f (.const:.string)
                  00021d4e    00000002     mmw_mss_per4ft.oer4ft (.const:ti_sysbios_family_arm_exc_Exception_Module__id__C)
                  00021d50    00000158     rtsv7R4_T_le_v3D16_eabi.lib : k_rem_pio2.c.obj (.const:$O1$$)
                  00021ea8    00000101                                 : ctype.c.obj (.const:.string:_ctypes_)
                  00021fa9    00000004     libcli_xwr68xx.aer4f : cli.oer4f (.const:.string:$P$T0$1)
                  00021fad    00000001     mmw_mss_per4ft.oer4ft (.const:xdc_runtime_Text_charTab__A)
                  00021fae    00000002     mmw_mss_per4ft.oer4ft (.const:ti_sysbios_family_arm_v7a_Pmu_Module__id__C)
                  00021fb0    000000c8     rtsv7R4_T_le_v3D16_eabi.lib : strtod.c.obj (.const:$O1$$)
                  00022078    000000a0     libcli_xwr68xx.aer4f : cli_mmwave.oer4f (.const:.string)
                  00022118    00000088     libmmwavelink_xwr68xx.aer4f : rl_driver.oer4f (.const:$O2$$)
                  000221a0    00000080     mmw_mss_per4ft.oer4ft (.const:ti_sysbios_family_arm_v7r_vim_Hwi_channelMap__A)
                  00022220    00000058     mmw_mss_per4ft.oer4ft (.const:.string)
                  00022278    00000044     mmw_mss_per4ft.oer4ft (.const:ti_sysbios_knl_Task_Object__PARAMS__C)
                  000222bc    00000040     libhwa_xwr68xx.aer4f : hwa.oer4f (.const:gHwaTrigSignatures)
                  000222fc    0000003c     libuart_xwr68xx.aer4f : UART.oer4f (.const:UART_defaultParams)
                  00022338    0000003c     mmw_mss_per4ft.oer4ft (.const:xdc_runtime_LoggerBuf_Module__FXNS__C)
                  00022374    00000038     libedma_xwr68xx.aer4f : edma_xwr1xxx.oer4f (.const:gEdmaHwAttrs)
                  000223ac    00000030     mmw_mss_per4ft.oer4ft (.const:ti_sysbios_family_arm_v7r_vim_Hwi_Object__PARAMS__C)
                  000223dc    00000030     mmw_mss_per4ft.oer4ft (.const:xdc_runtime_Startup_sfxnTab__A)
                  0002240c    00000028     libdpm_xwr68xx.aer4f : dpm_msg.oer4f (.const:gDPMMessageFxnTable)
                  00022434    00000028     mmw_mss_per4ft.oer4ft (.const:ti_sysbios_heaps_HeapMem_Module__FXNS__C)
                  0002245c    00000028     mmw_mss_per4ft.oer4ft (.const:xdc_runtime_LoggerBuf_Object__PARAMS__C)
                  00022484    00000024     libmailbox_xwr68xx.aer4f : mailbox.oer4f (.const:Mailbox_defaultCfg)
                  000224a8    00000024     mmw_mss_per4ft.oer4ft (.const:ti_sysbios_gates_GateHwi_Module__FXNS__C)
                  000224cc    00000024     mmw_mss_per4ft.oer4ft (.const:ti_sysbios_gates_GateMutex_Module__FXNS__C)
                  000224f0    00000024     mmw_mss_per4ft.oer4ft (.const:ti_sysbios_heaps_HeapMem_Object__PARAMS__C)
                  00022514    00000024     mmw_mss_per4ft.oer4ft (.const:ti_sysbios_knl_Semaphore_Object__PARAMS__C)
                  00022538    00000020     libcli_xwr68xx.aer4f : cli_mmwave.oer4f (.const:$P$T0$1)
                  00022558    00000020     libhwa_xwr68xx.aer4f : hwa.oer4f (.const:$P$T0$1)
                  00022578    00000020     mmw_mss_per4ft.oer4ft (.const:ti_sysbios_family_arm_v7r_vim_Hwi_Object__DESC__C)
                  00022598    00000020     mmw_mss_per4ft.oer4ft (.const:ti_sysbios_gates_GateHwi_Object__DESC__C)
                  000225b8    00000020     mmw_mss_per4ft.oer4ft (.const:ti_sysbios_gates_GateMutex_Object__DESC__C)
                  000225d8    00000020     mmw_mss_per4ft.oer4ft (.const:ti_sysbios_heaps_HeapMem_Object__DESC__C)
                  000225f8    00000020     mmw_mss_per4ft.oer4ft (.const:ti_sysbios_knl_Queue_Object__DESC__C)
                  00022618    00000020     mmw_mss_per4ft.oer4ft (.const:ti_sysbios_knl_Semaphore_Object__DESC__C)
                  00022638    00000020     mmw_mss_per4ft.oer4ft (.const:ti_sysbios_knl_Task_Object__DESC__C)
                  00022658    00000020     mmw_mss_per4ft.oer4ft (.const:xdc_runtime_LoggerBuf_Object__DESC__C)
                  00022678    00000018     mmw_mss_per4ft.oer4ft (.const:ti_sysbios_gates_GateHwi_Object__PARAMS__C)
                  00022690    00000018     mmw_mss_per4ft.oer4ft (.const:ti_sysbios_gates_GateMutex_Object__PARAMS__C)
                  000226a8    00000018     mmw_mss_per4ft.oer4ft (.const:ti_sysbios_knl_Queue_Object__PARAMS__C)
                  000226c0    00000018     mmw_mss_per4ft.oer4ft (.const:ti_sysbios_knl_Task_hooks__A)
                  000226d8    00000018     mmw_mss_per4ft.oer4ft (.const:xdc_runtime_Startup_sfxnRts__A)
                  000226f0    00000014     libadcbuf_xwr68xx.aer4f : adcbuf_mmwave.oer4f (.const:gADCBufFxnTable)
                  00022704    00000010     rtsv7R4_T_le_v3D16_eabi.lib : _scanfi.c.obj (.const:$O1$$)
                  00022714    00000010     libadcbuf_xwr68xx.aer4f : ADCBuf.oer4f (.const:ADCBuf_defaultParams)
                  00022724    00000010     libedma_xwr68xx.aer4f : edma.oer4f (.const:EDMA_config$1)
                  00022734    00000010     libqspi_xwr68xx.aer4f : qspi.oer4f (.const:QSPI_defaultParams)
                  00022744    00000010     libadcbuf_xwr68xx.aer4f : adcbuf_xwr1xxx.oer4f (.const:gADCBufHwCfg)
                  00022754    00000010     mmw_mss_per4ft.oer4ft (.const:ti_sysbios_family_arm_v7r_vim_Hwi_intReqEnaSet__A)
                  00022764    00000010     mmw_mss_per4ft.oer4ft (.const:ti_sysbios_family_arm_v7r_vim_Hwi_wakeEnaSet__A)
                  00022774    0000000c     mmw_mss_per4ft.oer4ft (.const:ti_sysbios_knl_Idle_funcList__A)
                  00022780    00000008     mmw_mss_per4ft.oer4ft (.const:ti_sysbios_knl_Idle_funcList__C)
                  00022788    00000008     mmw_mss_per4ft.oer4ft (.const:ti_sysbios_knl_Task_hooks__C)
                  00022790    00000008     mmw_mss_per4ft.oer4ft (.const:xdc_runtime_Startup_firstFxns__A)
                  00022798    00000008     mmw_mss_per4ft.oer4ft (.const:xdc_runtime_Startup_firstFxns__C)
                  000227a0    00000008     mmw_mss_per4ft.oer4ft (.const:xdc_runtime_Startup_lastFxns__C)
                  000227a8    00000004     mmw_mss_per4ft.oer4ft (.const:ti_sysbios_family_arm_TaskSupport_stackAlignment__C)
                  000227ac    00000004     mmw_mss_per4ft.oer4ft (.const:ti_sysbios_family_arm_exc_Exception_E_dataAbort__C)
                  000227b0    00000004     mmw_mss_per4ft.oer4ft (.const:ti_sysbios_family_arm_exc_Exception_E_prefetchAbort__C)
                  000227b4    00000004     mmw_mss_per4ft.oer4ft (.const:ti_sysbios_family_arm_exc_Exception_E_swi__C)
                  000227b8    00000004     mmw_mss_per4ft.oer4ft (.const:ti_sysbios_family_arm_exc_Exception_E_undefinedInstruction__C)
                  000227bc    00000004     mmw_mss_per4ft.oer4ft (.const:ti_sysbios_family_arm_exc_Exception_excHookFuncs__A)
                  000227c0    00000004     mmw_mss_per4ft.oer4ft (.const:ti_sysbios_family_arm_exc_Exception_excHookFuncs__C)
                  000227c4    00000004     mmw_mss_per4ft.oer4ft (.const:ti_sysbios_family_arm_v7a_Pmu_A_invalidCounterId__C)
                  000227c8    00000004     mmw_mss_per4ft.oer4ft (.const:ti_sysbios_family_arm_v7a_Pmu_Module__diagsEnabled__C)
                  000227cc    00000004     mmw_mss_per4ft.oer4ft (.const:ti_sysbios_family_arm_v7a_Pmu_Module__diagsIncluded__C)
                  000227d0    00000004     mmw_mss_per4ft.oer4ft (.const:ti_sysbios_family_arm_v7a_Pmu_Module__diagsMask__C)
                  000227d4    00000004     mmw_mss_per4ft.oer4ft (.const:ti_sysbios_family_arm_v7r_tms570_Core_E_mismatchedIds__C)
                  000227d8    00000004     mmw_mss_per4ft.oer4ft (.const:ti_sysbios_family_arm_v7r_tms570_Core_id__C)
                  000227dc    00000004     mmw_mss_per4ft.oer4ft (.const:ti_sysbios_family_arm_v7r_vim_Hwi_A_badChannelId__C)
                  000227e0    00000004     mmw_mss_per4ft.oer4ft (.const:ti_sysbios_family_arm_v7r_vim_Hwi_E_alreadyDefined__C)
                  000227e4    00000004     mmw_mss_per4ft.oer4ft (.const:ti_sysbios_family_arm_v7r_vim_Hwi_E_badIntNum__C)
                  000227e8    00000004     mmw_mss_per4ft.oer4ft (.const:ti_sysbios_family_arm_v7r_vim_Hwi_E_phantomInterrupt__C)
                  000227ec    00000004     mmw_mss_per4ft.oer4ft (.const:ti_sysbios_family_arm_v7r_vim_Hwi_E_undefined__C)
                  000227f0    00000004     mmw_mss_per4ft.oer4ft (.const:ti_sysbios_family_arm_v7r_vim_Hwi_E_unsupportedMaskingOption__C)
                  000227f4    00000004     mmw_mss_per4ft.oer4ft (.const:ti_sysbios_family_arm_v7r_vim_Hwi_LD_end__C)
                  000227f8    00000004     mmw_mss_per4ft.oer4ft (.const:ti_sysbios_family_arm_v7r_vim_Hwi_LM_begin__C)
                  000227fc    00000004     mmw_mss_per4ft.oer4ft (.const:ti_sysbios_family_arm_v7r_vim_Hwi_Module__diagsEnabled__C)
                  00022800    00000004     mmw_mss_per4ft.oer4ft (.const:ti_sysbios_family_arm_v7r_vim_Hwi_Module__diagsIncluded__C)
                  00022804    00000004     mmw_mss_per4ft.oer4ft (.const:ti_sysbios_family_arm_v7r_vim_Hwi_Module__diagsMask__C)
                  00022808    00000004     mmw_mss_per4ft.oer4ft (.const:ti_sysbios_family_arm_v7r_vim_Hwi_Module__loggerFxn1__C)
                  0002280c    00000004     mmw_mss_per4ft.oer4ft (.const:ti_sysbios_family_arm_v7r_vim_Hwi_Module__loggerFxn8__C)
                  00022810    00000004     mmw_mss_per4ft.oer4ft (.const:ti_sysbios_family_arm_v7r_vim_Hwi_Module__loggerObj__C)
                  00022814    00000004     mmw_mss_per4ft.oer4ft (.const:ti_sysbios_family_arm_v7r_vim_Hwi_NUM_INTERRUPTS__C)
                  00022818    00000004     mmw_mss_per4ft.oer4ft (.const:ti_sysbios_family_arm_v7r_vim_Hwi_channelMap__C)
                  0002281c    00000004     mmw_mss_per4ft.oer4ft (.const:ti_sysbios_family_arm_v7r_vim_Hwi_intReqEnaSet__C)
                  00022820    00000004     mmw_mss_per4ft.oer4ft (.const:ti_sysbios_family_arm_v7r_vim_Hwi_phantomFunc__C)
                  00022824    00000004     mmw_mss_per4ft.oer4ft (.const:ti_sysbios_family_arm_v7r_vim_Hwi_taskDisable__C)
                  00022828    00000004     mmw_mss_per4ft.oer4ft (.const:ti_sysbios_family_arm_v7r_vim_Hwi_taskRestoreHwi__C)
                  0002282c    00000004     mmw_mss_per4ft.oer4ft (.const:ti_sysbios_family_arm_v7r_vim_Hwi_wakeEnaSet__C)
                  00022830    00000004     mmw_mss_per4ft.oer4ft (.const:ti_sysbios_gates_GateMutex_A_badContext__C)
                  00022834    00000004     mmw_mss_per4ft.oer4ft (.const:ti_sysbios_gates_GateMutex_Instance_State_sem__O)
                  00022838    00000004     mmw_mss_per4ft.oer4ft (.const:ti_sysbios_gates_GateMutex_Module__diagsEnabled__C)
                  0002283c    00000004     mmw_mss_per4ft.oer4ft (.const:ti_sysbios_gates_GateMutex_Module__diagsIncluded__C)
                  00022840    00000004     mmw_mss_per4ft.oer4ft (.const:ti_sysbios_gates_GateMutex_Module__diagsMask__C)
                  00022844    00000004     mmw_mss_per4ft.oer4ft (.const:ti_sysbios_hal_Hwi_E_stackOverflow__C)
                  00022848    00000004     mmw_mss_per4ft.oer4ft (.const:ti_sysbios_heaps_HeapBuf_Instance_State_freeList__O)
                  0002284c    00000004     mmw_mss_per4ft.oer4ft (.const:ti_sysbios_heaps_HeapBuf_Object__count__C)
                  00022850    00000004     mmw_mss_per4ft.oer4ft (.const:ti_sysbios_heaps_HeapBuf_numConstructedHeaps__C)
                  00022854    00000004     mmw_mss_per4ft.oer4ft (.const:ti_sysbios_heaps_HeapMem_A_align__C)
                  00022858    00000004     mmw_mss_per4ft.oer4ft (.const:ti_sysbios_heaps_HeapMem_A_heapSize__C)
                  0002285c    00000004     mmw_mss_per4ft.oer4ft (.const:ti_sysbios_heaps_HeapMem_A_invalidFree__C)
                  00022860    00000004     mmw_mss_per4ft.oer4ft (.const:ti_sysbios_heaps_HeapMem_A_zeroBlock__C)
                  00022864    00000004     mmw_mss_per4ft.oer4ft (.const:ti_sysbios_heaps_HeapMem_E_memory__C)
                  00022868    00000004     mmw_mss_per4ft.oer4ft (.const:ti_sysbios_heaps_HeapMem_Module__diagsEnabled__C)
                  0002286c    00000004     mmw_mss_per4ft.oer4ft (.const:ti_sysbios_heaps_HeapMem_Module__diagsIncluded__C)
                  00022870    00000004     mmw_mss_per4ft.oer4ft (.const:ti_sysbios_heaps_HeapMem_Module__diagsMask__C)
                  00022874    00000004     mmw_mss_per4ft.oer4ft (.const:ti_sysbios_heaps_HeapMem_Module__gateObj__C)
                  00022878    00000004     mmw_mss_per4ft.oer4ft (.const:ti_sysbios_heaps_HeapMem_Object__count__C)
                  0002287c    00000004     mmw_mss_per4ft.oer4ft (.const:ti_sysbios_heaps_HeapMem_reqAlign__C)
                  00022880    00000004     mmw_mss_per4ft.oer4ft (.const:ti_sysbios_knl_Clock_LM_begin__C)
                  00022884    00000004     mmw_mss_per4ft.oer4ft (.const:ti_sysbios_knl_Clock_LM_tick__C)
                  00022888    00000004     mmw_mss_per4ft.oer4ft (.const:ti_sysbios_knl_Clock_LW_delayed__C)
                  0002288c    00000004     mmw_mss_per4ft.oer4ft (.const:ti_sysbios_knl_Clock_Module_State_clockQ__O)
                  00022890    00000004     mmw_mss_per4ft.oer4ft (.const:ti_sysbios_knl_Clock_Module__diagsEnabled__C)
                  00022894    00000004     mmw_mss_per4ft.oer4ft (.const:ti_sysbios_knl_Clock_Module__diagsIncluded__C)
                  00022898    00000004     mmw_mss_per4ft.oer4ft (.const:ti_sysbios_knl_Clock_Module__diagsMask__C)
                  0002289c    00000004     mmw_mss_per4ft.oer4ft (.const:ti_sysbios_knl_Clock_Module__loggerFxn1__C)
                  000228a0    00000004     mmw_mss_per4ft.oer4ft (.const:ti_sysbios_knl_Clock_Module__loggerFxn2__C)
                  000228a4    00000004     mmw_mss_per4ft.oer4ft (.const:ti_sysbios_knl_Clock_Module__loggerObj__C)
                  000228a8    00000004     mmw_mss_per4ft.oer4ft (.const:ti_sysbios_knl_Semaphore_A_badContext__C)
                  000228ac    00000004     mmw_mss_per4ft.oer4ft (.const:ti_sysbios_knl_Semaphore_A_noEvents__C)
                  000228b0    00000004     mmw_mss_per4ft.oer4ft (.const:ti_sysbios_knl_Semaphore_A_overflow__C)
                  000228b4    00000004     mmw_mss_per4ft.oer4ft (.const:ti_sysbios_knl_Semaphore_A_pendTaskDisabled__C)
                  000228b8    00000004     mmw_mss_per4ft.oer4ft (.const:ti_sysbios_knl_Semaphore_Instance_State_pendQ__O)
                  000228bc    00000004     mmw_mss_per4ft.oer4ft (.const:ti_sysbios_knl_Semaphore_LM_pend__C)
                  000228c0    00000004     mmw_mss_per4ft.oer4ft (.const:ti_sysbios_knl_Semaphore_LM_post__C)
                  000228c4    00000004     mmw_mss_per4ft.oer4ft (.const:ti_sysbios_knl_Semaphore_Module__diagsEnabled__C)
                  000228c8    00000004     mmw_mss_per4ft.oer4ft (.const:ti_sysbios_knl_Semaphore_Module__diagsIncluded__C)
                  000228cc    00000004     mmw_mss_per4ft.oer4ft (.const:ti_sysbios_knl_Semaphore_Module__diagsMask__C)
                  000228d0    00000004     mmw_mss_per4ft.oer4ft (.const:ti_sysbios_knl_Semaphore_Module__loggerFxn2__C)
                  000228d4    00000004     mmw_mss_per4ft.oer4ft (.const:ti_sysbios_knl_Semaphore_Module__loggerFxn4__C)
                  000228d8    00000004     mmw_mss_per4ft.oer4ft (.const:ti_sysbios_knl_Semaphore_Module__loggerObj__C)
                  000228dc    00000004     mmw_mss_per4ft.oer4ft (.const:ti_sysbios_knl_Task_A_badPriority__C)
                  000228e0    00000004     mmw_mss_per4ft.oer4ft (.const:ti_sysbios_knl_Task_A_badTaskState__C)
                  000228e4    00000004     mmw_mss_per4ft.oer4ft (.const:ti_sysbios_knl_Task_A_badThreadType__C)
                  000228e8    00000004     mmw_mss_per4ft.oer4ft (.const:ti_sysbios_knl_Task_A_badTimeout__C)
                  000228ec    00000004     mmw_mss_per4ft.oer4ft (.const:ti_sysbios_knl_Task_A_noPendElem__C)
                  000228f0    00000004     mmw_mss_per4ft.oer4ft (.const:ti_sysbios_knl_Task_A_sleepTaskDisabled__C)
                  000228f4    00000004     mmw_mss_per4ft.oer4ft (.const:ti_sysbios_knl_Task_E_spOutOfBounds__C)
                  000228f8    00000004     mmw_mss_per4ft.oer4ft (.const:ti_sysbios_knl_Task_E_stackOverflow__C)
                  000228fc    00000004     mmw_mss_per4ft.oer4ft (.const:ti_sysbios_knl_Task_LD_block__C)
                  00022900    00000004     mmw_mss_per4ft.oer4ft (.const:ti_sysbios_knl_Task_LD_exit__C)
                  00022904    00000004     mmw_mss_per4ft.oer4ft (.const:ti_sysbios_knl_Task_LD_ready__C)
                  00022908    00000004     mmw_mss_per4ft.oer4ft (.const:ti_sysbios_knl_Task_LM_sleep__C)
                  0002290c    00000004     mmw_mss_per4ft.oer4ft (.const:ti_sysbios_knl_Task_LM_switch__C)
                  00022910    00000004     mmw_mss_per4ft.oer4ft (.const:ti_sysbios_knl_Task_Module_State_inactiveQ__O)
                  00022914    00000004     mmw_mss_per4ft.oer4ft (.const:ti_sysbios_knl_Task_Module__diagsEnabled__C)
                  00022918    00000004     mmw_mss_per4ft.oer4ft (.const:ti_sysbios_knl_Task_Module__diagsIncluded__C)
                  0002291c    00000004     mmw_mss_per4ft.oer4ft (.const:ti_sysbios_knl_Task_Module__diagsMask__C)
                  00022920    00000004     mmw_mss_per4ft.oer4ft (.const:ti_sysbios_knl_Task_Module__loggerFxn2__C)
                  00022924    00000004     mmw_mss_per4ft.oer4ft (.const:ti_sysbios_knl_Task_Module__loggerFxn4__C)
                  00022928    00000004     mmw_mss_per4ft.oer4ft (.const:ti_sysbios_knl_Task_Module__loggerObj__C)
                  0002292c    00000004     mmw_mss_per4ft.oer4ft (.const:ti_sysbios_knl_Task_Object__count__C)
                  00022930    00000004     mmw_mss_per4ft.oer4ft (.const:ti_sysbios_knl_Task_Object__heap__C)
                  00022934    00000004     mmw_mss_per4ft.oer4ft (.const:ti_sysbios_knl_Task_allBlockedFunc__C)
                  00022938    00000004     mmw_mss_per4ft.oer4ft (.const:ti_sysbios_knl_Task_defaultStackHeap__C)
                  0002293c    00000004     mmw_mss_per4ft.oer4ft (.const:ti_sysbios_knl_Task_defaultStackSize__C)
                  00022940    00000004     mmw_mss_per4ft.oer4ft (.const:ti_sysbios_knl_Task_numConstructedTasks__C)
                  00022944    00000004     mmw_mss_per4ft.oer4ft (.const:ti_sysbios_timers_rti_Timer_E_cannotSupport__C)
                  00022948    00000004     mmw_mss_per4ft.oer4ft (.const:ti_sysbios_timers_rti_Timer_Module__diagsEnabled__C)
                  0002294c    00000004     mmw_mss_per4ft.oer4ft (.const:ti_sysbios_timers_rti_Timer_Module__diagsIncluded__C)
                  00022950    00000004     mmw_mss_per4ft.oer4ft (.const:ti_sysbios_timers_rti_Timer_Module__diagsMask__C)
                  00022954    00000004     mmw_mss_per4ft.oer4ft (.const:ti_sysbios_timers_rti_Timer_numTimerDevices__C)
                  00022958    00000004     mmw_mss_per4ft.oer4ft (.const:ti_sysbios_timers_rti_Timer_startupNeeded__C)
                  0002295c    00000004     mmw_mss_per4ft.oer4ft (.const:ti_sysbios_utils_Load_LS_cpuLoad__C)
                  00022960    00000004     mmw_mss_per4ft.oer4ft (.const:ti_sysbios_utils_Load_LS_taskLoad__C)
                  00022964    00000004     mmw_mss_per4ft.oer4ft (.const:ti_sysbios_utils_Load_Module_State_taskList__O)
                  00022968    00000004     mmw_mss_per4ft.oer4ft (.const:ti_sysbios_utils_Load_Module__diagsEnabled__C)
                  0002296c    00000004     mmw_mss_per4ft.oer4ft (.const:ti_sysbios_utils_Load_Module__diagsIncluded__C)
                  00022970    00000004     mmw_mss_per4ft.oer4ft (.const:ti_sysbios_utils_Load_Module__diagsMask__C)
                  00022974    00000004     mmw_mss_per4ft.oer4ft (.const:ti_sysbios_utils_Load_Module__loggerFxn1__C)
                  00022978    00000004     mmw_mss_per4ft.oer4ft (.const:ti_sysbios_utils_Load_Module__loggerFxn4__C)
                  0002297c    00000004     mmw_mss_per4ft.oer4ft (.const:ti_sysbios_utils_Load_Module__loggerObj__C)
                  00022980    00000004     mmw_mss_per4ft.oer4ft (.const:ti_sysbios_utils_Load_postUpdate__C)
                  00022984    00000004     mmw_mss_per4ft.oer4ft (.const:ti_sysbios_utils_Load_windowInMs__C)
                  00022988    00000004     mmw_mss_per4ft.oer4ft (.const:xdc_runtime_Assert_E_assertFailed__C)
                  0002298c    00000004     mmw_mss_per4ft.oer4ft (.const:xdc_runtime_Core_A_initializedParams__C)
                  00022990    00000004     mmw_mss_per4ft.oer4ft (.const:xdc_runtime_Core_Module__diagsEnabled__C)
                  00022994    00000004     mmw_mss_per4ft.oer4ft (.const:xdc_runtime_Core_Module__diagsIncluded__C)
                  00022998    00000004     mmw_mss_per4ft.oer4ft (.const:xdc_runtime_Core_Module__diagsMask__C)
                  0002299c    00000004     mmw_mss_per4ft.oer4ft (.const:xdc_runtime_Error_E_memory__C)
                  000229a0    00000004     mmw_mss_per4ft.oer4ft (.const:xdc_runtime_Error_Module__diagsEnabled__C)
                  000229a4    00000004     mmw_mss_per4ft.oer4ft (.const:xdc_runtime_Error_Module__diagsIncluded__C)
                  000229a8    00000004     mmw_mss_per4ft.oer4ft (.const:xdc_runtime_Error_Module__diagsMask__C)
                  000229ac    00000004     mmw_mss_per4ft.oer4ft (.const:xdc_runtime_Error_Module__loggerFxn8__C)
                  000229b0    00000004     mmw_mss_per4ft.oer4ft (.const:xdc_runtime_Error_Module__loggerObj__C)
                  000229b4    00000004     mmw_mss_per4ft.oer4ft (.const:xdc_runtime_Error_policyFxn__C)
                  000229b8    00000004     mmw_mss_per4ft.oer4ft (.const:xdc_runtime_Error_policy__C)
                  000229bc    00000004     mmw_mss_per4ft.oer4ft (.const:xdc_runtime_Error_raiseHook__C)
                  000229c0    00000004     mmw_mss_per4ft.oer4ft (.const:xdc_runtime_IFilterLogger_Interface__BASE__C)
                  000229c4    00000004     mmw_mss_per4ft.oer4ft (.const:xdc_runtime_IGateProvider_Interface__BASE__C)
                  000229c8    00000004     mmw_mss_per4ft.oer4ft (.const:xdc_runtime_IHeap_Interface__BASE__C)
                  000229cc    00000004     mmw_mss_per4ft.oer4ft (.const:xdc_runtime_ILogger_Interface__BASE__C)
                  000229d0    00000004     mmw_mss_per4ft.oer4ft (.const:xdc_runtime_IModule_Interface__BASE__C)
                  000229d4    00000004     mmw_mss_per4ft.oer4ft (.const:xdc_runtime_Log_L_error__C)
                  000229d8    00000004     mmw_mss_per4ft.oer4ft (.const:xdc_runtime_LoggerBuf_E_badLevel__C)
                  000229dc    00000004     mmw_mss_per4ft.oer4ft (.const:xdc_runtime_LoggerBuf_Module__gateObj__C)
                  000229e0    00000004     mmw_mss_per4ft.oer4ft (.const:xdc_runtime_LoggerBuf_Object__count__C)
                  000229e4    00000004     mmw_mss_per4ft.oer4ft (.const:xdc_runtime_LoggerBuf_statusLogger__C)
                  000229e8    00000004     mmw_mss_per4ft.oer4ft (.const:xdc_runtime_Main_Module__diagsEnabled__C)
                  000229ec    00000004     mmw_mss_per4ft.oer4ft (.const:xdc_runtime_Main_Module__diagsIncluded__C)
                  000229f0    00000004     mmw_mss_per4ft.oer4ft (.const:xdc_runtime_Main_Module__diagsMask__C)
                  000229f4    00000004     mmw_mss_per4ft.oer4ft (.const:xdc_runtime_Main_Module__loggerFxn1__C)
                  000229f8    00000004     mmw_mss_per4ft.oer4ft (.const:xdc_runtime_Main_Module__loggerFxn2__C)
                  000229fc    00000004     mmw_mss_per4ft.oer4ft (.const:xdc_runtime_Main_Module__loggerFxn4__C)
                  00022a00    00000004     mmw_mss_per4ft.oer4ft (.const:xdc_runtime_Main_Module__loggerObj__C)
                  00022a04    00000004     mmw_mss_per4ft.oer4ft (.const:xdc_runtime_Memory_defaultHeapInstance__C)
                  00022a08    00000004     mmw_mss_per4ft.oer4ft (.const:xdc_runtime_Startup_execImpl__C)
                  00022a0c    00000004     mmw_mss_per4ft.oer4ft (.const:xdc_runtime_Startup_maxPasses__C)
                  00022a10    00000004     mmw_mss_per4ft.oer4ft (.const:xdc_runtime_Startup_sfxnRts__C)
                  00022a14    00000004     mmw_mss_per4ft.oer4ft (.const:xdc_runtime_Startup_sfxnTab__C)
                  00022a18    00000004     mmw_mss_per4ft.oer4ft (.const:xdc_runtime_System_Module__gateObj__C)
                  00022a1c    00000004     mmw_mss_per4ft.oer4ft (.const:xdc_runtime_System_abortFxn__C)
                  00022a20    00000004     mmw_mss_per4ft.oer4ft (.const:xdc_runtime_System_exitFxn__C)
                  00022a24    00000004     mmw_mss_per4ft.oer4ft (.const:xdc_runtime_System_extendFxn__C)
                  00022a28    00000004     mmw_mss_per4ft.oer4ft (.const:xdc_runtime_System_maxAtexitHandlers__C)
                  00022a2c    00000004     mmw_mss_per4ft.oer4ft (.const:xdc_runtime_Text_charTab__C)
                  00022a30    00000004     mmw_mss_per4ft.oer4ft (.const:xdc_runtime_Text_nameEmpty__C)
                  00022a34    00000004     mmw_mss_per4ft.oer4ft (.const:xdc_runtime_Text_nameStatic__C)
                  00022a38    00000004     mmw_mss_per4ft.oer4ft (.const:xdc_runtime_Text_nameUnknown__C)
                  00022a3c    00000004     mmw_mss_per4ft.oer4ft (.const:xdc_runtime_Text_visitRopeFxn__C)
                  00022a40    00000002     mmw_mss_per4ft.oer4ft (.const:ti_sysbios_family_arm_v7r_tms570_Core_Module__id__C)
                  00022a42    00000002     mmw_mss_per4ft.oer4ft (.const:ti_sysbios_family_arm_v7r_vim_Hwi_Module__id__C)
                  00022a44    00000002     mmw_mss_per4ft.oer4ft (.const:ti_sysbios_family_arm_v7r_vim_Hwi_Module__loggerDefined__C)
                  00022a46    00000002     mmw_mss_per4ft.oer4ft (.const:ti_sysbios_gates_GateMutex_Module__id__C)
                  00022a48    00000002     mmw_mss_per4ft.oer4ft (.const:ti_sysbios_hal_Hwi_Module__id__C)
                  00022a4a    00000002     mmw_mss_per4ft.oer4ft (.const:ti_sysbios_heaps_HeapMem_Module__id__C)
                  00022a4c    00000002     mmw_mss_per4ft.oer4ft (.const:ti_sysbios_knl_Clock_Module__id__C)
                  00022a4e    00000002     mmw_mss_per4ft.oer4ft (.const:ti_sysbios_knl_Clock_Module__loggerDefined__C)
                  00022a50    00000002     mmw_mss_per4ft.oer4ft (.const:ti_sysbios_knl_Semaphore_Module__id__C)
                  00022a52    00000002     mmw_mss_per4ft.oer4ft (.const:ti_sysbios_knl_Semaphore_Module__loggerDefined__C)
                  00022a54    00000002     mmw_mss_per4ft.oer4ft (.const:ti_sysbios_knl_Task_Module__id__C)
                  00022a56    00000002     mmw_mss_per4ft.oer4ft (.const:ti_sysbios_knl_Task_Module__loggerDefined__C)
                  00022a58    00000002     mmw_mss_per4ft.oer4ft (.const:ti_sysbios_timers_rti_Timer_Module__id__C)
                  00022a5a    00000002     mmw_mss_per4ft.oer4ft (.const:ti_sysbios_timers_rti_Timer_continueOnSuspend__C)
                  00022a5c    00000002     mmw_mss_per4ft.oer4ft (.const:ti_sysbios_utils_Load_Module__id__C)
                  00022a5e    00000002     mmw_mss_per4ft.oer4ft (.const:ti_sysbios_utils_Load_Module__loggerDefined__C)
                  00022a60    00000002     mmw_mss_per4ft.oer4ft (.const:ti_sysbios_utils_Load_autoAddTasks__C)
                  00022a62    00000002     mmw_mss_per4ft.oer4ft (.const:ti_sysbios_utils_Load_updateInIdle__C)
                  00022a64    00000002     mmw_mss_per4ft.oer4ft (.const:xdc_runtime_Core_Module__id__C)
                  00022a66    00000002     mmw_mss_per4ft.oer4ft (.const:xdc_runtime_Error_Module__loggerDefined__C)
                  00022a68    00000002     mmw_mss_per4ft.oer4ft (.const:xdc_runtime_Error_maxDepth__C)
                  00022a6a    00000002     mmw_mss_per4ft.oer4ft (.const:xdc_runtime_LoggerBuf_Module__id__C)
                  00022a6c    00000002     mmw_mss_per4ft.oer4ft (.const:xdc_runtime_LoggerBuf_filterByLevel__C)
                  00022a6e    00000002     mmw_mss_per4ft.oer4ft (.const:xdc_runtime_Main_Module__id__C)
                  00022a70    00000002     mmw_mss_per4ft.oer4ft (.const:xdc_runtime_Main_Module__loggerDefined__C)
                  00022a72    00000002     mmw_mss_per4ft.oer4ft (.const:xdc_runtime_Memory_Module__id__C)
                  00022a74    00000002     mmw_mss_per4ft.oer4ft (.const:xdc_runtime_Text_charCnt__C)
                  00022a76    00000002     mmw_mss_per4ft.oer4ft (.const:xdc_runtime_Text_isLoaded__C)
                  00022a78    00000002     mmw_mss_per4ft.oer4ft (.const:xdc_runtime_Text_registryModsLastId__C)
                  00022a7a    00000002     mmw_mss_per4ft.oer4ft (.const:xdc_runtime_Text_unnamedModsLastId__C)

.cinit     0    00022a80    00000588     
                  00022a80    0000051d     (.cinit..data.load) [load image, compression = lzss]
                  00022f9d    00000003     --HOLE-- [fill = 0]
                  00022fa0    0000000c     (__TI_handler_table)
                  00022fac    00000004     --HOLE-- [fill = 0]
                  00022fb0    00000008     (.cinit..bss.load) [load image, compression = zero_init]
                  00022fb8    00000008     (.cinit..dpcLocalRam.load) [load image, compression = zero_init]
                  00022fc0    00000008     (.cinit..l3ram.load) [load image, compression = zero_init]
                  00022fc8    00000008     (.cinit..myFiqStack.load) [load image, compression = zero_init]
                  00022fd0    00000008     (.cinit.systemHeap.load) [load image, compression = zero_init]
                  00022fd8    00000030     (__TI_cinit_table)

.bss       0    08008000    00003c88     UNINITIALIZED
                  08008000    00001900     (.common:xdc_runtime_LoggerBuf_Instance_State_0_entryArr__A)
                  08009900    00001000     (.common:ti_sysbios_family_arm_exc_Exception_Module_State_0_excStack_0__A)
                  0800a900    000004e8     libedma_xwr68xx.aer4f : edma.oer4f (.bss:$O1$$)
                  0800ade8    00000460     (.common:gCalibDataStorage)
                  0800b248    00000320     mmw_mss_per4ft.oer4ft (.bss:taskStackSection)
                  0800b568    000001a8     (.common:gCLI)
                  0800b710    00000194     (.common:gGPIOMCB)
                  0800b8a4    00000120     rtsv7R4_T_le_v3D16_eabi.lib : trgmsg.c.obj (.bss:_CIOBUF_)
                  0800b9c4    00000100     (.common:gMMWave_MCB)
                  0800bac4    000000a0     (.common:__TI_tmpnams)
                  0800bb64    00000004     (.common:gObjDetObj)
                  0800bb68    00000090     (.common:gHSIHeaderMCB)
                  0800bbf8    00000070     (.common:gEsmMCB)
                  0800bc68    0000000c     (.common:gMmwDemoFlash)
                  0800bc74    00000008     (.common:gMMWave_DualcoreMCB)
                  0800bc7c    00000008     (.common:parmbuf)
                  0800bc84    00000004     (.common:ti_sysbios_knl_Task_Instance_State_0_hookEnv__A)

.data      0    0800bc88    00001d0c     UNINITIALIZED
                  0800bc88    000009c8     mss_main.oer4f (.data:$O1$$)
                  0800c650    000003e8     libmmwavelink_xwr68xx.aer4f : rl_driver.oer4f (.data:$O1$$)
                  0800ca38    00000368     libcli_xwr68xx.aer4f : cli_mmwave.oer4f (.data:$O1$$)
                  0800cda0    00000200     mmw_mss_per4ft.oer4ft (.data:ti_sysbios_family_arm_v7r_vim_Hwi_Module_State_0_dispatchTable__A)
                  0800cfa0    000000f0     rtsv7R4_T_le_v3D16_eabi.lib : defs.c.obj (.data:_ftable)
                  0800d090    00000098     mmw_mss_per4ft.oer4ft (.data:ti_sysbios_utils_Load_Module__state__V)
                  0800d128    00000080     mmw_mss_per4ft.oer4ft (.data:ti_sysbios_knl_Task_Module_State_0_readyQ__A)
                  0800d1a8    00000078     rtsv7R4_T_le_v3D16_eabi.lib : host_device.c.obj (.data:_device)
                  0800d220    00000078     libcbuff_xwr68xx.aer4f : cbuff_xwr68xx.oer4f (.data:gCBUFFHwAttribute)
                  0800d298    0000005c     mmw_mss_per4ft.oer4ft (.data:ti_sysbios_knl_Task_Object__table__V)
                  0800d2f4    00000058     libuart_xwr68xx.aer4f : uart_xwr68xx.oer4f (.data:gUartSciHwCfg)
                  0800d34c    00000050     rtsv7R4_T_le_v3D16_eabi.lib : host_device.c.obj (.data:_stream)
                  0800d39c    00000050     libmailbox_xwr68xx.aer4f : mailbox.oer4f (.data:gMailboxMCB)
                  0800d3ec    00000048     mmw_mss_per4ft.oer4ft (.data:ti_sysbios_knl_Task_Module__state__V)
                  0800d434    00000040     libsoc_xwr68xx.aer4f : soc_xwr68xx.oer4f (.data:SOC_TranslateAddr_LUT)
                  0800d474    00000040     mmw_mss_per4ft.oer4ft (.data:ti_sysbios_gates_GateMutex_Object__table__V)
                  0800d4b4    0000003c     mmw_mss_per4ft.oer4ft (.data:ti_sysbios_timers_rti_Timer_Object__table__V)
                  0800d4f0    00000038     libcbuff_xwr68xx.aer4f : cbuff_xwr68xx.oer4f (.data:gCBUFFInterfaceFxn)
                  0800d528    00000034     mmw_mss_per4ft.oer4ft (.data:ti_sysbios_family_arm_v7r_vim_Hwi_Module__state__V)
                  0800d55c    00000030     libhwa_xwr68xx.aer4f : hwa_xwr68xx.oer4f (.data:gHWAHwCfg)
                  0800d58c    0000002c     mmw_mss_per4ft.oer4ft (.data:ti_sysbios_family_arm_v7r_vim_Hwi_Object__table__V)
                  0800d5b8    0000002c     mmw_mss_per4ft.oer4ft (.data:ti_sysbios_knl_Clock_Module__state__V)
                  0800d5e4    00000028     libuart_xwr68xx.aer4f : uartsci.oer4f (.data:gUartSciFxnTable)
                  0800d60c    00000024                           : uart_xwr68xx.oer4f (.data:UART_config)
                  0800d630    00000024     objdetrangehwa.oer4f (.data:gDPC_ObjDetRangeHWACfg)
                  0800d654    00000024     mmw_mss_per4ft.oer4ft (.data:ti_sysbios_BIOS_Module__state__V)
                  0800d678    00000024     mmw_mss_per4ft.oer4ft (.data:xdc_runtime_LoggerBuf_Object__table__V)
                  0800d69c    00000004     libhwa_xwr68xx.aer4f : hwa_xwr68xx.oer4f (.data:gHWADriverPtr)
                  0800d6a0    00000020     libsoc_xwr68xx.aer4f : soc_xwr68xx_mss.oer4f (.data:gSOCHwAttrib)
                  0800d6c0    00000020     mmw_mss_per4ft.oer4ft (.data:ti_sysbios_knl_Clock_Object__table__V)
                  0800d6e0    00000020     mmw_mss_per4ft.oer4ft (.data:xdc_runtime_Error_IgnoreBlock)
                  0800d700    00000020     mmw_mss_per4ft.oer4ft (.data:xdc_runtime_System_Module_State_0_atexitHandlers__A)
                  0800d720    0000001c     mmw_mss_per4ft.oer4ft (.data:ti_sysbios_utils_Load_Module_State_0_taskEnv__A)
                  0800d73c    00000018     libadcbuf_xwr68xx.aer4f : adcbuf_xwr1xxx.oer4f (.data:ADCBuf_config)
                  0800d754    00000018     libcbuff_xwr68xx.aer4f : cbuff_xwr68xx.oer4f (.data:gInterleavedTransferFxn)
                  0800d76c    00000018     libmailbox_xwr68xx.aer4f : mailbox_xwr68xx.oer4f (.data:gMailboxMssBssHwCfg)
                  0800d784    00000018                              : mailbox_xwr68xx.oer4f (.data:gMailboxMssDssHwCfg)
                  0800d79c    00000018     libcbuff_xwr68xx.aer4f : cbuff_xwr68xx.oer4f (.data:gMultipleChirpNonInterleavedTransferFxn)
                  0800d7b4    00000018                            : cbuff_xwr68xx.oer4f (.data:gNonInterleavedTransferFxn)
                  0800d7cc    00000018     mmw_mss_per4ft.oer4ft (.data:ti_sysbios_heaps_HeapMem_Object__table__V)
                  0800d7e4    00000018     mmw_mss_per4ft.oer4ft (.data:ti_sysbios_timers_rti_Timer_Module_State_0_device__A)
                  0800d7fc    00000014     libdpm_xwr68xx.aer4f : dpm_mailbox.oer4f (.data:gDPMRemoteTable)
                  0800d810    00000014     mmw_mss_per4ft.oer4ft (.data:ti_sysbios_family_arm_exc_Exception_Module__state__V)
                  0800d824    00000010     libhwa_xwr68xx.aer4f : hwa.oer4f (.data:gHwaEDMAChanMapping)
                  0800d834    00000010     libqspi_xwr68xx.aer4f : qspi_xwr68xx.oer4f (.data:gQSPIHwCfg)
                  0800d844    00000010     rtsv7R4_T_le_v3D16_eabi.lib : defs.c.obj (.data)
                  0800d854    00000010     mmw_mss_per4ft.oer4ft (.data:ti_sysbios_timers_rti_Timer_Module_State_0_intFreqs__A)
                  0800d864    00000010     mmw_mss_per4ft.oer4ft (.data:ti_sysbios_timers_rti_Timer_Module__state__V)
                  0800d874    0000000c     rtsv7R4_T_le_v3D16_eabi.lib : exit.c.obj (.data:$O1$$)
                  0800d880    0000000c     libesm_xwr68xx.aer4f : esm_xwr1xxx.oer4f (.data:gESMHwCfgAttrs)
                  0800d88c    0000000c     mmw_mss_per4ft.oer4ft (.data:ti_sysbios_family_arm_v7a_Pmu_Module__state__V)
                  0800d898    0000000c     mmw_mss_per4ft.oer4ft (.data:ti_sysbios_knl_Task_Module__root__V)
                  0800d8a4    00000008     rtsv7R4_T_le_v3D16_eabi.lib : _lock.c.obj (.data:$O1$$)
                  0800d8ac    00000008     mmwdemo_rfparser.oer4f (.data:MmwDemo_RFParserHwCfg)
                  0800d8b4    00000008     libqspiflash_xwr68xx.aer4f : qspiflash_device_macronix.oer4f (.data:QSPIFlash_deviceFxnTbl_macronix)
                  0800d8bc    00000008                                : qspiflash_device_spansion.oer4f (.data:QSPIFlash_deviceFxnTbl_spansion)
                  0800d8c4    00000008     libdpm_xwr68xx.aer4f : dpm_xwr68xx.oer4f (.data:gDPMHwAttrib)
                  0800d8cc    00000008     libgpio_xwr68xx.aer4f : gpio_xwr68xx.oer4f (.data:gGPIOHwAtrrib)
                  0800d8d4    00000008     mmw_mss_per4ft.oer4ft (.data:ti_sysbios_family_arm_v7r_vim_Hwi_Module__root__V)
                  0800d8dc    00000008     mmw_mss_per4ft.oer4ft (.data:ti_sysbios_gates_GateHwi_Module__root__V)
                  0800d8e4    00000008     mmw_mss_per4ft.oer4ft (.data:ti_sysbios_gates_GateMutex_Module__root__V)
                  0800d8ec    00000008     mmw_mss_per4ft.oer4ft (.data:ti_sysbios_hal_Hwi_Object__table__V)
                  0800d8f4    00000008     mmw_mss_per4ft.oer4ft (.data:ti_sysbios_heaps_HeapMem_Module__root__V)
                  0800d8fc    00000008     mmw_mss_per4ft.oer4ft (.data:ti_sysbios_knl_Queue_Module__root__V)
                  0800d904    00000008     mmw_mss_per4ft.oer4ft (.data:ti_sysbios_knl_Semaphore_Module__root__V)
                  0800d90c    00000008     mmw_mss_per4ft.oer4ft (.data:ti_sysbios_timers_rti_Timer_Module_State_0_handles__A)
                  0800d914    00000008     mmw_mss_per4ft.oer4ft (.data:xdc_runtime_LoggerBuf_Module__root__V)
                  0800d91c    00000008     mmw_mss_per4ft.oer4ft (.data:xdc_runtime_Registry_Module__state__V)
                  0800d924    00000008     mmw_mss_per4ft.oer4ft (.data:xdc_runtime_Startup_Module__state__V)
                  0800d92c    00000008     mmw_mss_per4ft.oer4ft (.data:xdc_runtime_System_Module__state__V)
                  0800d934    00000006     mmw_mss_per4ft.oer4ft (.data:xdc_runtime_LoggerBuf_Module__state__V)
                  0800d93a    00000002     mmw_mss_per4ft.oer4ft (.data:ti_sysbios_family_arm_exc_Exception_Module_State_0_excActive__A)
                  0800d93c    00000004     libqspiflash_xwr68xx.aer4f : qspiflash_xwr68xx.oer4f (.data:gQSPIFlashHwCfg)
                  0800d940    00000004     libadcbuf_xwr68xx.aer4f : ADCBuf.oer4f (.data)
                  0800d944    00000004     libcrc_xwr68xx.aer4f : crc_xwr68xx.oer4f (.data)
                  0800d948    00000004     libdpm_xwr68xx.aer4f : dpm_mailbox.oer4f (.data)
                  0800d94c    00000004     libedma_xwr68xx.aer4f : edma_low_level.oer4f (.data)
                  0800d950    00000004     libpinmux_xwr68xx.aer4f : pinmux_xwr1xxx.oer4f (.data)
                  0800d954    00000004     libqspi_xwr68xx.aer4f : qspi.oer4f (.data)
                  0800d958    00000004     libuart_xwr68xx.aer4f : UART.oer4f (.data)
                  0800d95c    00000004     rtsv7R4_T_le_v3D16_eabi.lib : errno.c.obj (.data)
                  0800d960    00000004                                 : stkdepth_vars.c.obj (.data)
                  0800d964    00000004                                 : strtok.c.obj (.data)
                  0800d968    00000004     mmw_mss_per4ft.oer4ft (.data:ti_sysbios_family_arm_a15_TimestampProvider_Module__state__V)
                  0800d96c    00000004     mmw_mss_per4ft.oer4ft (.data:ti_sysbios_family_arm_exc_Exception_Module_State_0_excContext__A)
                  0800d970    00000004     mmw_mss_per4ft.oer4ft (.data:ti_sysbios_family_arm_exc_Exception_Module_State_0_excStackBuffers__A)
                  0800d974    00000004     mmw_mss_per4ft.oer4ft (.data:ti_sysbios_family_arm_exc_Exception_Module_State_0_excStack__A)
                  0800d978    00000004     mmw_mss_per4ft.oer4ft (.data:ti_sysbios_gates_GateHwi_Object__table__V)
                  0800d97c    00000004     mmw_mss_per4ft.oer4ft (.data:ti_sysbios_heaps_HeapBuf_Module__state__V)
                  0800d980    00000004     mmw_mss_per4ft.oer4ft (.data:ti_sysbios_knl_Task_Module_State_0_idleTask__A)
                  0800d984    00000004     mmw_mss_per4ft.oer4ft (.data:ti_sysbios_utils_Load_Module_State_0_runningTask__A)
                  0800d988    00000004     mmw_mss_per4ft.oer4ft (.data:ti_sysbios_utils_Load_Module_State_0_taskStartTime__A)
                  0800d98c    00000004     mmw_mss_per4ft.oer4ft (.data:xdc_runtime_Memory_Module__state__V)
                  0800d990    00000002     mmw_mss_per4ft.oer4ft (.data:xdc_runtime_Error_Module__state__V)
                  0800d992    00000002     mmw_mss_per4ft.oer4ft (.data:xdc_runtime_Main_Module__root__V)

.myFiqStack 
*          0    0800e998    00000800     UNINITIALIZED
                  0800e998    00000800     mmw_mss_per4ft.oer4ft (.myFiqStack)

.stack     0    0800f198    00000800     UNINITIALIZED
                  0800f198    00000800     --HOLE--

xdc.meta   0    00000000    000000e7     COPY SECTION
                  00000000    000000e7     mmw_mss_per4ft.oer4ft (xdc.meta)

xdc.noload 
*          0    00000000    00000000     COPY SECTION

__llvm_prf_cnts 
*          0    08000000    00000000     UNINITIALIZED

.l3ram     0    51000000    000c0000     UNINITIALIZED
                  51000000    000c0000     mss_main.oer4f (.l3ram)

MODULE SUMMARY

       Module                            code     ro data   rw data
       ------                            ----     -------   -------
    .\
       mss_main.oer4f                    14829    0         794152 
       mmw_cli.oer4f                     6782     494       0      
       mmw_lvds_stream.oer4f             3157     0         0      
       objdetrangehwa.oer4f              2302     0         40     
       mmwdemo_rfparser.oer4f            1636     0         8      
       mmwdemo_flash.oer4f               312      0         12     
       mmwdemo_adcconfig.oer4f           216      0         0      
       mmwdemo_monitor.oer4f             130      0         0      
    +--+---------------------------------+--------+---------+---------+
       Total:                            29364    494       794212 
                                                                   
    D:\ti\dev\mmWave\out_of_box_6843_isk_mss\Debug\configPkg\package\cfg\
       mmw_mss_per4ft.oer4ft             1872     1913      47804  
    +--+---------------------------------+--------+---------+---------+
       Total:                            1872     1913      47804  
                                                                   
    D:/ti/ccs1270/ccs/tools/compiler/ti-cgt-arm_20.2.7.LTS/lib/rtsv7R4_T_le_v3D16_eabi.lib
       _printfi.c.obj                    4663     0         0      
       _scanfi.c.obj                     2860     16        0      
       k_rem_pio2.c.obj                  1540     344       0      
       strtod.c.obj                      1000     200       0      
       s_cos.c.obj                       1012     0         0      
       ull_div32.asm.obj                 692      0         0      
       strtoll.c.obj                     484      0         0      
       defs.c.obj                        0        0         416    
       trgmsg.c.obj                      112      0         288    
       strtoull.c.obj                    356      0         0      
       strtol.c.obj                      304      0         0      
       strtoul.c.obj                     272      0         0      
       ctype.c.obj                       0        257       0      
       s_scalbn.c.obj                    240      0         0      
       s_floor.c.obj                     224      0         0      
       setvbuf.c.obj                     220      0         0      
       fflush.c.obj                      204      0         0      
       host_device.c.obj                 0        0         200    
       sscanf.c.obj                      186      0         0      
       k_cos.c.obj                       180      0         0      
       k_sin.c.obj                       168      0         0      
       fputc.c.obj                       156      0         0      
       memcpy_t2.asm.obj                 156      0         0      
       vsnprintf.c.obj                   136      0         0      
       memset_t2.asm.obj                 122      0         0      
       getdevice.c.obj                   120      0         0      
       fclose.c.obj                      116      0         0      
       s_frexp.c.obj                     116      0         0      
       copy_decompress_lzss.c.obj        108      0         0      
       hostrename.c.obj                  108      0         0      
       hostlseek.c.obj                   104      0         0      
       _io_perm.c.obj                    100      0         0      
       fseek.c.obj                       100      0         0      
       hostopen.c.obj                    92       0         8      
       sprintf.c.obj                     100      0         0      
       hostread.c.obj                    92       0         0      
       close.c.obj                       88       0         0      
       hostwrite.c.obj                   88       0         0      
       _ltoa.c.obj                       84       0         0      
       exit.c.obj                        72       0         12     
       atoi.c.obj                        80       0         0      
       u_div32.asm.obj                   80       0         0      
       cpy_tbl.c.obj                     76       0         0      
       hostclose.c.obj                   68       0         0      
       hostunlink.c.obj                  68       0         0      
       strtok.c.obj                      64       0         4      
       strncpy.c.obj                     54       0         0      
       fopen.c.obj                       52       0         0      
       unlink.c.obj                      44       0         0      
       strspn.c.obj                      42       0         0      
       lseek.c.obj                       40       0         0      
       write.c.obj                       40       0         0      
       memccpy.c.obj                     38       0         0      
       memcmp.c.obj                      38       0         0      
       _lock.c.obj                       26       0         8      
       strcspn.c.obj                     34       0         0      
       s_copysign.c.obj                  32       0         0      
       args_main.c.obj                   24       0         0      
       ll_mul_t2.asm.obj                 24       0         0      
       strcmp.c.obj                      24       0         0      
       strrchr.c.obj                     24       0         0      
       strchr.c.obj                      22       0         0      
       strlen.c.obj                      22       0         0      
       strcpy.c.obj                      20       0         0      
       wcslen.c.obj                      18       0         0      
       copy_decompress_none.c.obj        14       0         0      
       copy_zero_init.c.obj              12       0         0      
       errno.c.obj                       8        0         4      
       stkdepth_vars.c.obj               0        0         4      
       div0.asm.obj                      2        0         0      
    +--+---------------------------------+--------+---------+---------+
       Total:                            17865    817       944    
                                                                   
    D:/ti/mmwave_sdk_03_05_00_04/packages/ti/control/dpm/lib/libdpm_xwr68xx.aer4f
       dpm_core.oer4f                    1264     0         0      
       dpm_msg.oer4f                     1134     40        0      
       dpm_mailbox.oer4f                 362      0         24     
       dpm_pipe.oer4f                    312      0         0      
       dpm_listlib.oer4f                 86       0         0      
       dpm_xwr68xx.oer4f                 0        0         8      
    +--+---------------------------------+--------+---------+---------+
       Total:                            3158     40        32     
                                                                   
    D:/ti/mmwave_sdk_03_05_00_04/packages/ti/control/mmwave/lib/libmmwave_xwr68xx.aer4f
       mmwave_link.oer4f                 2612     0         0      
       mmwave_dualcore.oer4f             2108     0         8      
       mmwave_fullcfg.oer4f              2002     0         0      
       mmwave.oer4f                      1016     0         256    
       mmwave_osal.oer4f                 200      0         0      
       mmwave_listlib.oer4f              142      0         0      
    +--+---------------------------------+--------+---------+---------+
       Total:                            8080     0         264    
                                                                   
    D:/ti/mmwave_sdk_03_05_00_04/packages/ti/control/mmwavelink/lib/libmmwavelink_xwr68xx.aer4f
       rl_driver.oer4f                   4458     136       1000   
       rl_sensor.oer4f                   2494     696       0      
       rl_device.oer4f                   460      0         0      
       rl_controller.oer4f               152      0         0      
       rl_monitoring.oer4f               114      0         0      
    +--+---------------------------------+--------+---------+---------+
       Total:                            7678     832       1000   
                                                                   
    D:/ti/mmwave_sdk_03_05_00_04/packages/ti/datapath/dpedma/lib/libdpedma_hwa_xwr68xx.aer4f
       dpedma.oer4f                      610      0         0      
       dpedmahwa.oer4f                   234      0         0      
    +--+---------------------------------+--------+---------+---------+
       Total:                            844      0         0      
                                                                   
    D:/ti/mmwave_sdk_03_05_00_04/packages/ti/datapath/dpu/rangeproc/lib/librangeproc_hwa_xwr68xx.aer4f
       rangeprochwa.oer4f                4982     0         0      
    +--+---------------------------------+--------+---------+---------+
       Total:                            4982     0         0      
                                                                   
    D:/ti/mmwave_sdk_03_05_00_04/packages/ti/drivers/adcbuf/lib/libadcbuf_xwr68xx.aer4f
       adcbuf_mmwave.oer4f               1972     20        0      
       ADCBuf.oer4f                      136      16        4      
       adcbuf_xwr1xxx.oer4f              0        16        24     
    +--+---------------------------------+--------+---------+---------+
       Total:                            2108     52        28     
                                                                   
    D:/ti/mmwave_sdk_03_05_00_04/packages/ti/drivers/cbuff/lib/libcbuff_xwr68xx.aer4f
       cbuff.oer4f                       2954     0         0      
       cbuff_transfer.oer4f              1542     0         0      
       cbuff_lvds.oer4f                  1329     0         0      
       cbuff_edma.oer4f                  731      0         0      
       cbuff_xwr68xx.oer4f               0        0         248    
    +--+---------------------------------+--------+---------+---------+
       Total:                            6556     0         248    
                                                                   
    D:/ti/mmwave_sdk_03_05_00_04/packages/ti/drivers/crc/lib/libcrc_xwr68xx.aer4f
       crc.oer4f                         1256     0         0      
       crc_xwr68xx.oer4f                 0        0         4      
    +--+---------------------------------+--------+---------+---------+
       Total:                            1256     0         4      
                                                                   
    D:/ti/mmwave_sdk_03_05_00_04/packages/ti/drivers/dma/lib/libdma_xwr68xx.aer4f
       dma.oer4f                         1978     0         0      
    +--+---------------------------------+--------+---------+---------+
       Total:                            1978     0         0      
                                                                   
    D:/ti/mmwave_sdk_03_05_00_04/packages/ti/drivers/edma/lib/libedma_xwr68xx.aer4f
       edma.oer4f                        3050     16        1256   
       edma_low_level.oer4f              846      0         4      
       edma_xwr1xxx.oer4f                0        56        0      
    +--+---------------------------------+--------+---------+---------+
       Total:                            3896     72        1260   
                                                                   
    D:/ti/mmwave_sdk_03_05_00_04/packages/ti/drivers/esm/lib/libesm_xwr68xx.aer4f
       esm.oer4f                         456      0         112    
       esm_xwr1xxx.oer4f                 0        0         12     
    +--+---------------------------------+--------+---------+---------+
       Total:                            456      0         124    
                                                                   
    D:/ti/mmwave_sdk_03_05_00_04/packages/ti/drivers/gpio/lib/libgpio_xwr68xx.aer4f
       gpio.oer4f                        886      0         404    
       gpio_xwr68xx.oer4f                0        0         8      
    +--+---------------------------------+--------+---------+---------+
       Total:                            886      0         412    
                                                                   
    D:/ti/mmwave_sdk_03_05_00_04/packages/ti/drivers/hwa/lib/libhwa_xwr68xx.aer4f
       hwa.oer4f                         4236     96        16     
       hwa_xwr68xx.oer4f                 0        0         52     
    +--+---------------------------------+--------+---------+---------+
       Total:                            4236     96        68     
                                                                   
    D:/ti/mmwave_sdk_03_05_00_04/packages/ti/drivers/mailbox/lib/libmailbox_xwr68xx.aer4f
       mailbox.oer4f                     1916     36        80     
       mailbox_xwr68xx.oer4f             0        0         48     
    +--+---------------------------------+--------+---------+---------+
       Total:                            1916     36        128    
                                                                   
    D:/ti/mmwave_sdk_03_05_00_04/packages/ti/drivers/osal/lib/libosal_xwr68xx.aer4f
       DebugP_tirtos.oer4f               388      0         0      
       HwiP_tirtos.oer4f                 226      0         0      
       SemaphoreP_tirtos.oer4f           150      0         0      
       MemoryP_tirtos.oer4f              36       0         0      
       CycleprofilerP_tirtos.oer4f       26       0         0      
    +--+---------------------------------+--------+---------+---------+
       Total:                            826      0         0      
                                                                   
    D:/ti/mmwave_sdk_03_05_00_04/packages/ti/drivers/pinmux/lib/libpinmux_xwr68xx.aer4f
       pinmux.oer4f                      390      0         0      
       pinmux_xwr1xxx.oer4f              0        0         4      
    +--+---------------------------------+--------+---------+---------+
       Total:                            390      0         4      
                                                                   
    D:/ti/mmwave_sdk_03_05_00_04/packages/ti/drivers/qspi/lib/libqspi_xwr68xx.aer4f
       qspi.oer4f                        779      16        4      
       qspi_xwr68xx.oer4f                0        0         16     
    +--+---------------------------------+--------+---------+---------+
       Total:                            779      16        20     
                                                                   
    D:/ti/mmwave_sdk_03_05_00_04/packages/ti/drivers/qspiflash/lib/libqspiflash_xwr68xx.aer4f
       qspiflash.oer4f                   1712     0         0      
       qspiflash_device_macronix.oer4f   236      0         8      
       qspiflash_device_spansion.oer4f   220      0         8      
       qspiflash_xwr68xx.oer4f           0        0         4      
    +--+---------------------------------+--------+---------+---------+
       Total:                            2168     0         20     
                                                                   
    D:/ti/mmwave_sdk_03_05_00_04/packages/ti/drivers/soc/lib/libsoc_xwr68xx.aer4f
       soc_xwr68xx_mss.oer4f             1546     0         32     
       soc_xwr68xx.oer4f                 894      0         64     
       soc.oer4f                         928      0         0      
       soc_mpu.o                         182      0         0      
    +--+---------------------------------+--------+---------+---------+
       Total:                            3550     0         96     
                                                                   
    D:/ti/mmwave_sdk_03_05_00_04/packages/ti/drivers/uart/lib/libuart_xwr68xx.aer4f
       uartsci.oer4f                     2192     0         40     
       uartsci_dma.oer4f                 642      0         0      
       UART.oer4f                        160      60        4      
       uart_xwr68xx.oer4f                0        0         124    
    +--+---------------------------------+--------+---------+---------+
       Total:                            2994     60        168    
                                                                   
    D:/ti/mmwave_sdk_03_05_00_04/packages/ti/utils/cli/lib/libcli_xwr68xx.aer4f
       cli_mmwave.oer4f                  4652     192       872    
       cli.oer4f                         820      4         424    
    +--+---------------------------------+--------+---------+---------+
       Total:                            5472     196       1296   
                                                                   
    D:/ti/mmwave_sdk_03_05_00_04/packages/ti/utils/hsiheader/lib/libhsiheader_xwr68xx.aer4f
       hsiheader.oer4f                   1176     0         144    
    +--+---------------------------------+--------+---------+---------+
       Total:                            1176     0         144    
                                                                   
    D:/ti/mmwave_sdk_03_05_00_04/packages/ti/utils/mathutils/lib/libmathutils.aer4f
       mathutils.oer4f                   344      0         0      
    +--+---------------------------------+--------+---------+---------+
       Total:                            344      0         0      
                                                                   
    D:\ti\bios_6_73_01_01\packages\ti\targets\arm\rtsarm\lib\auto_init.aer4ft
       auto_init.oer4ft                  160      0         0      
    +--+---------------------------------+--------+---------+---------+
       Total:                            160      0         0      
                                                                   
    D:\ti\bios_6_73_01_01\packages\ti\targets\arm\rtsarm\lib\boot.aer4ft
       boot.oer4ft                       116      0         0      
    +--+---------------------------------+--------+---------+---------+
       Total:                            116      0         0      
                                                                   
    D:\ti\dev\mmWave\out_of_box_6843_isk_mss\src\sysbios\sysbios.aer4ft
       BIOS.obj                          20805    0         0      
       exc_Exception_asm.obj             308      0         0      
       vim_Hwi_asm.obj                   208      0         0      
       arm_TaskSupport_asm.obj           180      0         0      
       vim_Hwi_asm_switch.obj            152      0         0      
       a15_TimestampProvider_asm.obj     46       0         0      
       arm_IntrinsicsSupport_asm.obj     12       0         0      
       tms570_Core_asm.obj               10       0         0      
    +--+---------------------------------+--------+---------+---------+
       Total:                            21721    0         0      
                                                                   
       Stack:                            0        0         2048   
       Linker Generated:                 0        1409      0      
    +--+---------------------------------+--------+---------+---------+
       Grand Total:                      136827   6033      850324 


LINKER GENERATED COPY TABLES

__TI_cinit_table @ 00022fd8 records: 6, size/record: 8, table size: 48
	.data: load addr=00022a80, load size=0000051d bytes, run addr=0800bc88, run size=00001d0c bytes, compression=lzss
	.bss: load addr=00022fb0, load size=00000008 bytes, run addr=08008000, run size=00003c88 bytes, compression=zero_init
	.dpcLocalRam: load addr=00022fb8, load size=00000008 bytes, run addr=0800d994, run size=00001000 bytes, compression=zero_init
	.l3ram: load addr=00022fc0, load size=00000008 bytes, run addr=51000000, run size=000c0000 bytes, compression=zero_init
	.myFiqStack: load addr=00022fc8, load size=00000008 bytes, run addr=0800e998, run size=00000800 bytes, compression=zero_init
	systemHeap: load addr=00022fd0, load size=00000008 bytes, run addr=08000000, run size=00008000 bytes, compression=zero_init


LINKER GENERATED HANDLER TABLE

__TI_handler_table @ 00022fa0 records: 3, size/record: 4, table size: 12
	index: 0, handler: __TI_zero_init
	index: 1, handler: __TI_decompress_lzss
	index: 2, handler: __TI_decompress_none


GLOBAL SYMBOLS: SORTED ALPHABETICALLY BY Name 

address   name                                                                 
-------   ----                                                                 
0001e199  ADCBUF_MMWave_close                                                  
00004f29  ADCBUF_MMWave_control                                                
0001aadd  ADCBUF_MMWave_getCQBufAddr                                           
0001736d  ADCBUF_MMWave_getChanBufAddr                                         
00001673  ADCBUF_MMWave_init                                                   
00010b1d  ADCBUF_MMWave_open                                                   
00021595  ADCBuf_Params_init                                                   
0800d73c  ADCBuf_config                                                        
0001ca35  ADCBuf_control                                                       
00022714  ADCBuf_defaultParams                                                 
0001d475  ADCBuf_getChanBufAddr                                                
0001f795  ADCBuf_init                                                          
0001f371  ADCBuf_open                                                          
0001873d  C$$EXIT                                                              
0001f007  C$$IO$$                                                              
0000d4c5  CBUFF_activateSession                                                
00019c55  CBUFF_closeEDMA                                                      
0001e5c5  CBUFF_closeLVDS                                                      
0000c6cd  CBUFF_configEDMA                                                     
00007fbd  CBUFF_createSession                                                  
00016bd9  CBUFF_deactivateSession                                              
000127e5  CBUFF_deinit                                                         
0001d4d5  CBUFF_deinitLVDS                                                     
00013205  CBUFF_deleteSession                                                  
00020d9d  CBUFF_finalizeLVDSLinkListParams                                     
00009a25  CBUFF_init                                                           
0000ca6d  CBUFF_initLVDS                                                       
0001a501  CBUFF_initLVDSLinkListParams                                         
0000aa39  CBUFF_openLVDS                                                       
0001abcd  CBUFF_setVC                                                          
00018c9b  CBUFF_setupNonInterleaved_ADC                                        
00015c3d  CBUFF_setupNonInterleaved_CP_ADC_CQ                                  
000166c9  CBUFF_setupTransfer                                                  
0001df57  CBUFF_setup_USER                                                     
00021261  CBUFF_shutdownTransfer                                               
0001c509  CLI_MMWaveExtensionHandler                                           
00017415  CLI_MMWaveExtensionHelp                                              
0001f1b5  CLI_MMWaveExtensionInit                                              
000215a5  CLI_getMMWaveExtensionConfig                                         
00020f3d  CLI_getMMWaveExtensionOpenConfig                                     
000146e5  CLI_open                                                             
0001d9f1  CLI_write                                                            
00013301  CRC_computeSignature                                                 
0001d5d9  CRC_getSignature                                                     
0001d181  CRC_getTransactionId                                                 
00021499  CRC_initConfigParams                                                 
0000bafd  CRC_open                                                             
0001dd39  CycleprofilerP_getTimeStamp                                          
00021307  CycleprofilerP_init                                                  
00017aa9  DMA_assignChannel                                                    
00013005  DMA_clearChannelInterruptFlag                                        
0001b5d1  DMA_disableChannel                                                   
000124cd  DMA_disableInterrupt                                                 
0001b63d  DMA_enableChannel                                                    
000147c5  DMA_enableInterrupt                                                  
0001d1d5  DMA_freeChannel                                                      
00016781  DMA_getChannelInterruptFlag                                          
0000c2f9  DMA_setChannelParams                                                 
0001417d  DPEDMAHWA_configTwoHotSignature                                      
00011e81  DPEDMA_configSyncAB                                                  
000128e9  DPEDMA_configSyncA_singleFrame                                       
0001d535  DPEDMA_setup_shadow_link                                             
00015d01  DPM_deinit                                                           
0001cb51  DPM_execute                                                          
0000e7c5  DPM_init                                                             
00015dc5  DPM_ioctl                                                            
00020db7  DPM_listAdd                                                          
000207c3  DPM_listCat                                                          
00020bf7  DPM_listRemove                                                       
0001ff31  DPM_msgInitHeader                                                    
0000e945  DPM_msgRecv                                                          
0001f225  DPM_notifyExecute                                                    
0001fd93  DPM_pipeDeinit                                                       
0001fafd  DPM_pipeInit                                                         
0001df9f  DPM_pipeRecv                                                         
0001a581  DPM_pipeSend                                                         
0001b6a9  DPM_relayResult                                                      
0001e265  DPM_start                                                            
0001e2a9  DPM_stop                                                             
0001d629  DPM_synch                                                            
000053d1  DPU_RangeProcHWA_config                                              
00014f75  DPU_RangeProcHWA_control                                             
0001ff59  DPU_RangeProcHWA_deinit                                              
00015f55  DPU_RangeProcHWA_init                                                
00004005  DPU_RangeProcHWA_process                                             
0001cc01  DebugP_log0                                                          
0001cc59  DebugP_log1                                                          
0001c569  DebugP_log2                                                          
0001c5c9  DebugP_log3                                                          
000082b5  EDMA3ChannelToParamMap                                               
00020119  EDMA3ClrCCErr                                                        
00020425  EDMA3ClrEvt                                                          
00020449  EDMA3ClrIntr                                                         
0001f25d  EDMA3ClrMissEvt                                                      
0002046d  EDMA3DisableDmaEvt                                                   
00020491  EDMA3DisableEvtIntr                                                  
00020f9d  EDMA3DisableQdmaEvt                                                  
0001ccb1  EDMA3EnableChInShadowReg                                             
000204b5  EDMA3EnableDmaEvt                                                    
000204d9  EDMA3EnableEvtIntr                                                   
00020fb5  EDMA3EnableQdmaEvt                                                   
000203a9  EDMA3ErrIntrHighStatusGet                                            
00020cd9  EDMA3GetCCErrStatus                                                  
00020d59  EDMA3GetErrIntrStatus                                                
0002131d  EDMA3GetIntrStatus                                                   
000174bd  EDMA3Init                                                            
00021331  EDMA3IntrStatusHighGet                                               
0001d679  EDMA3MapChToEvtQ                                                     
00021345  EDMA3MapQdmaChToPaRAM                                                
000207e5  EDMA3QdmaClrMissEvt                                                  
000217ab  EDMA3QdmaGetErrIntrStatus                                            
00020e1f  EDMA3SetPaRAM                                                        
000214ab  EDMA3SetQdmaTrigWord                                                 
0001eee5  EDMA_chainChannels                                                   
0000e1a9  EDMA_configChannel                                                   
00011a39  EDMA_configErrorMonitoring                                           
0001acbd  EDMA_configParamSet                                                  
0001da3d  EDMA_disableChannel                                                  
0001da89  EDMA_enableChannel                                                   
000115b1  EDMA_init                                                            
0001e711  EDMA_linkParamSets                                                   
0000cdfd  EDMA_open                                                            
0000c0f5  EDMAsetRegion                                                        
0001cd09  ESM_highpriority_FIQ                                                 
00017b4d  ESM_init                                                             
00020805  ESM_lowpriority_IRQ                                                  
000170b1  ESM_processInterrupt                                                 
0001913d  GPIO_init                                                            
0000edbd  GPIO_setConfig                                                       
000163dd  GPIO_write                                                           
0001e2ed  HOSTclose                                                            
0001bc21  HOSTlseek                                                            
0001c7b1  HOSTopen                                                             
0001c80d  HOSTread                                                             
0001b715  HOSTrename                                                           
0001e331  HOSTunlink                                                           
0001cd61  HOSTwrite                                                            
00009039  HSIHeader_createHeader                                               
0001b32d  HSIHeader_deleteHeader                                               
0001023d  HSIHeader_init                                                       
00008591  HWA_configCommon                                                     
00002e09  HWA_configParamSet                                                   
00018b6f  HWA_configRam                                                        
0001f3d9  HWA_disableDoneInterrupt                                             
00019b45  HWA_disableParamSetInterrupt                                         
0001ed75  HWA_enable                                                           
0001dad5  HWA_enableDoneInterrupt                                              
00015391  HWA_enableParamSetInterrupt                                          
0001c0f9  HWA_getDMAChanIndex                                                  
0001cdb9  HWA_getDMAconfig                                                     
0001e751  HWA_getHWAMemInfo                                                    
0000271f  HWA_init                                                             
0000e331  HWA_open                                                             
0001e649  HWA_reset                                                            
0001f0cd  HWA_setDMA2ACCManualTrig                                             
00021359  HwiP_Params_init                                                     
0001a481  HwiP_create                                                          
0001f109  HwiP_delete                                                          
00004569  HwiP_disable                                                         
0000734d  HwiP_disableInterrupt                                                
0000ef2d  HwiP_enableInterrupt                                                 
000217bb  HwiP_restore                                                         
00017bf1  MMWave_addBpmChirp                                                   
0001578d  MMWave_addChirp                                                      
00016c89  MMWave_addProfile                                                    
0001b001  MMWave_config                                                        
00015855  MMWave_configBPM                                                     
00018251  MMWave_configLink                                                    
0001edb3  MMWave_decodeError                                                   
00008b09  MMWave_decodeErrorLevel                                              
00019cdd  MMWave_deviceCfgAsyncEvent                                           
0001b40d  MMWave_deviceCfgFxn                                                  
00019d61  MMWave_deviceEventFxn                                                
00008db5  MMWave_deviceExecuteFxn                                              
000214bd  MMWave_deviceGetDeviceInfo                                           
000121a5  MMWave_deviceInitFxn                                                 
0001a679  MMWave_deviceOpenFxn                                                 
0001b075  MMWave_deviceStartFxn                                                
0001bc89  MMWave_deviceStopFxn                                                 
00020e39  MMWave_deviceSyncFxn                                                 
00020e53  MMWave_encodeError                                                   
0001ce11  MMWave_execute                                                       
0001e68b  MMWave_executeLink                                                   
0001591d  MMWave_flushCfg                                                      
0001a0f5  MMWave_getBpmChirpCfg                                                
0001760d  MMWave_getBpmChirpHandle                                             
00018879  MMWave_getChirpCfg                                                   
000159e5  MMWave_getChirpHandle                                                
00019de5  MMWave_getNumBpmChirp                                                
0001ad35  MMWave_getNumChirps                                                  
00019bcd  MMWave_getProfileCfg                                                 
000182ed  MMWave_getProfileHandle                                              
00014985  MMWave_init                                                          
0001d27d  MMWave_initLink                                                      
00020e6d  MMWave_listAdd                                                       
00020845  MMWave_listCat                                                       
000109dd  MMWave_listGetHead                                                   
0001191d  MMWave_listGetNext                                                   
00020c13  MMWave_listRemove                                                    
0001f7f5  MMWave_listRemoveNode                                                
00019e69  MMWave_open                                                          
0000de85  MMWave_openLink                                                      
0001fbad  MMWave_osalMutexCreate                                               
00021395  MMWave_osalMutexDelete                                               
00020fcd  MMWave_osalMutexLock                                                 
000135f5  MMWave_osalMutexUnlock                                               
0001fbd9  MMWave_osalSemCreate                                                 
000213a9  MMWave_osalSemDelete                                                 
00013cc5  MMWave_osalSemSignal                                                 
00020fe5  MMWave_osalSemWait                                                   
00017c95  MMWave_start                                                         
000129ed  MMWave_startLink                                                     
0001c8c5  MMWave_stop                                                          
0001b7ed  MMWave_stopLink                                                      
0001d6c9  MMWave_sync                                                          
0001ff81  Mailbox_Config_init                                                  
000191cd  Mailbox_close                                                        
00022484  Mailbox_defaultCfg                                                   
0001a6f5  Mailbox_init                                                         
00009c89  Mailbox_open                                                         
00014c19  Mailbox_read                                                         
0001bcf1  Mailbox_readFlush                                                    
000125d5  Mailbox_write                                                        
0001ef21  Mailbox_writeReset                                                   
000214cf  MemoryP_ctrlAlloc                                                    
0001e525  MemoryP_ctrlFree                                                     
0000f799  MemoryP_getStats                                                     
00016f51  MmwDemo_ADCBufConfig                                                 
0001fde7  MmwDemo_ADCBufOpen                                                   
00002011  MmwDemo_CLIInit                                                      
0001d2d1  MmwDemo_CfgUpdate                                                    
000108a1  MmwDemo_LVDSStreamDeleteHwSession                                    
00010d85  MmwDemo_LVDSStreamDeleteSwSession                                    
0000a5c5  MmwDemo_LVDSStreamHwConfig                                           
0000f20d  MmwDemo_LVDSStreamInit                                               
0000f371  MmwDemo_LVDSStreamSwConfig                                           
00016555  MmwDemo_LVDSStream_EDMAInit                                          
0800d8ac  MmwDemo_RFParserHwCfg                                                
000213bd  MmwDemo_RFParser_getNumSubFrames                                     
00018911  MmwDemo_RFParser_parseConfig                                         
0000d31d  MmwDemo_bpmConfig                                                    
000137f9  MmwDemo_configLVDSHwData                                             
0001545d  MmwDemo_configSensor                                                 
00016d39  MmwDemo_isAllCfgInNonPendingState                                    
000160d5  MmwDemo_isAllCfgInPendingState                                       
00003a65  MmwDemo_openSensor                                                   
0001d325  MmwDemo_resetStaticCfgPendingState                                   
0001869d  MmwDemo_sleep                                                        
0000cfbd  MmwDemo_startSensor                                                  
0000bcfd  MmwDemo_stopSensor                                                   
0000dced  MmwDemo_transferLVDSUserData                                         
0001b99d  Pinmux_Set_FuncSel                                                   
000176b5  Pinmux_Set_OverrideCtrl                                              
0002073b  QSPIFlashGetStatus                                                   
000215c5  QSPIFlashWriteCmd                                                    
00017f25  QSPIFlash_configMmapRead                                             
0001cfc9  QSPIFlash_configMmapWrite                                            
0800d8b4  QSPIFlash_deviceFxnTbl_macronix                                      
0800d8bc  QSPIFlash_deviceFxnTbl_spansion                                      
0001ffa9  QSPIFlash_getExtFlashAddr                                            
00004a53  QSPIFlash_init                                                       
0001adad  QSPIFlash_mmapRead                                                   
00017d39  QSPIFlash_mmapWrite                                                  
000097b9  QSPIFlash_open                                                       
0001e811  QSPIFlash_progQuadRead                                               
0001ae25  QSPIFlash_sectorErase                                                
0001d379  QSPIFlash_writeEnable                                                
000215d5  QSPI_Params_init                                                     
0001ae9d  QSPI_cfgRead                                                         
0001ba75  QSPI_cfgWrite                                                        
00022734  QSPI_defaultParams                                                   
00006457  QSPI_init                                                            
0001af15  QSPI_memAccessCfg                                                    
0000f639  QSPI_open                                                            
UNDEFED   SHT$$INIT_ARRAY$$Base                                                
UNDEFED   SHT$$INIT_ARRAY$$Limit                                               
000168ab  SOC_MPUAreRegionsSeparate                                            
00016857  SOC_MPUDisable                                                       
0001688b  SOC_MPUDisableBackgroundRegion                                       
00016839  SOC_MPUEnable                                                        
00016875  SOC_MPUEnableBackgroundRegion                                        
000168a1  SOC_MPUGetNumberOfRegions                                            
000168b9  SOC_MPUGetRegion                                                     
000168c5  SOC_MPUGetRegionBaseAddress                                          
000168df  SOC_MPUGetRegionPermission                                           
000168d5  SOC_MPUGetRegionType                                                 
000168b3  SOC_MPUSetRegion                                                     
000168bf  SOC_MPUSetRegionBaseAddress                                          
000168e9  SOC_MPUSetRegionSizeRegister                                         
000168cb  SOC_MPUSetRegionTypeAndPermission                                    
0001fe11  SOC_SystemISR                                                        
0800d434  SOC_TranslateAddr_LUT                                                
00015045  SOC_controlSecureFirewall                                            
0001775d  SOC_deregisterSysIntListener                                         
000079a5  SOC_deviceInit                                                       
0001f441  SOC_enableHWA                                                        
0001c9d9  SOC_enableLVDS                                                       
00018e59  SOC_gateClock                                                        
0001f825  SOC_getDevicePartNumber                                              
0001a1f5  SOC_getDeviceRFFreqScaleFactor                                       
00020c69  SOC_getInAddr_LUTType                                                
00020a4d  SOC_getOutAddr_LUTType                                               
0001f475  SOC_hasDSPCore                                                       
0001964d  SOC_init                                                             
00020569  SOC_isDSSOperational                                                 
0002058d  SOC_isMMWaveDSSOperational                                           
000205b1  SOC_isMMWaveMSSOperational                                           
0001ef5d  SOC_isSecureDevice                                                   
0000b6e3  SOC_microDelay                                                       
00018065  SOC_registerSysIntListener                                           
0001e3b9  SOC_resetDMA                                                         
0001f4a9  SOC_setMMWaveDSSLinkState                                            
0001f4dd  SOC_setMMWaveMSSLinkState                                            
0001f511  SOC_setMSSLinkState                                                  
000196d9  SOC_translateAddress                                                 
00015aad  SOC_ungateClock                                                      
0001ef99  SOC_unhaltBSS                                                        
0001fc05  SOC_waitBSSPowerUp                                                   
00011239  SemaphoreP_Params_init                                               
0001c15d  SemaphoreP_create                                                    
00010613  SemaphoreP_delete                                                    
000214e1  SemaphoreP_pend                                                      
0001e575  SemaphoreP_post                                                      
0001e575  SemaphoreP_postFromClock                                             
0001e575  SemaphoreP_postFromISR                                               
00014e95  UART_Params_init                                                     
0001f615  UART_close                                                           
0800d60c  UART_config                                                          
000222fc  UART_defaultParams                                                   
0001f295  UART_init                                                            
0001f545  UART_open                                                            
0001f8e5  UART_read                                                            
000208c5  UART_write                                                           
000211f5  UART_writePolling                                                    
0001d021  UartSci_closeDMA                                                     
0002075d  UartSci_disableRxDMA                                                 
000213e5  UartSci_disableTxDMA                                                 
0002077f  UartSci_enableRxDMA                                                  
000213f9  UartSci_enableTxDMA                                                  
00019765  UartSci_initiateRxDMA                                                
0001925d  UartSci_initiateTxDMA                                                
000151e5  UartSci_isDMAEnabled                                                 
00016b25  UartSci_openDMA                                                      
0001fa6f  _DPC_Objdet_Assert                                                   
0002140d  _DebugP_assert                                                       
000203d9  _MmwDemo_debugAssert                                                 
00000000  __ASM__                                                              
0800b8a4  __CIOBUF_                                                            
00000062  __ISA__                                                              
00000074  __PLAT__                                                             
0800f998  __STACK_END                                                          
00000800  __STACK_SIZE                                                         
00000098  __TARG__                                                             
00022fd8  __TI_CINIT_Base                                                      
00023008  __TI_CINIT_Limit                                                     
00022fa0  __TI_Handler_Table_Base                                              
00022fac  __TI_Handler_Table_Limit                                             
00018105  __TI_auto_init                                                       
0001f579  __TI_cleanup                                                         
0800d874  __TI_cleanup_ptr                                                     
0001b0e9  __TI_closefile                                                       
0001bae1  __TI_decompress_lzss                                                 
0001f753  __TI_decompress_none                                                 
0001dc05  __TI_doflush                                                         
0800d878  __TI_dtors_ptr                                                       
0800d87c  __TI_enable_exit_profile_output                                      
0800d844  __TI_ft_end                                                          
0001d3cd  __TI_ltoa                                                            
ffffffff  __TI_pprof_out_hndl                                                  
00000c2d  __TI_printfi                                                         
ffffffff  __TI_prof_data_size                                                  
ffffffff  __TI_prof_data_start                                                 
0001f5ad  __TI_readmsg                                                         
00000101  __TI_scanfi                                                          
00022a80  __TI_static_base__                                                   
0800bac4  __TI_tmpnams                                                         
0001efd5  __TI_writemsg                                                        
0001c1c1  __TI_wrt_ok                                                          
000181a5  __TI_zero_init                                                       
000000bf  __TRDR__                                                             
00015e89  __aeabi_errno_addr                                                   
00014267  __aeabi_idiv0                                                        
00014267  __aeabi_ldiv0                                                        
000210d5  __aeabi_lmul                                                         
0001aa63  __aeabi_memclr                                                       
0001aa63  __aeabi_memclr4                                                      
0001aa63  __aeabi_memclr8                                                      
0001855d  __aeabi_memcpy                                                       
0001855d  __aeabi_memcpy4                                                      
0001855d  __aeabi_memcpy8                                                      
0001aa65  __aeabi_memset                                                       
0001aa65  __aeabi_memset4                                                      
0001aa65  __aeabi_memset8                                                      
0800d850  __aeabi_stderr                                                       
0800d848  __aeabi_stdin                                                        
0800d84c  __aeabi_stdout                                                       
0001d948  __aeabi_uidiv                                                        
0001d948  __aeabi_uidivmod                                                     
00008854  __aeabi_uldivmod                                                     
ffffffff  __binit__                                                            
ffffffff  __c_args__                                                           
000168f1  __kernel_cos                                                         
00003461  __kernel_rem_pio2                                                    
00017805  __kernel_sin                                                         
0800f198  __stack                                                              
08000000  __start___llvm_prf_cnts                                              
08000000  __stop___llvm_prf_cnts                                               
0002105d  _args_main                                                           
0001b15c  _c_int00                                                             
00021ea8  _ctypes_                                                             
0800d1a8  _device                                                              
0800cfa0  _ftable                                                              
0800d8a4  _lock                                                                
000137f7  _nop                                                                 
00016255  _register_lock                                                       
000169a5  _register_unlock                                                     
0800d34c  _stream                                                              
0800d8a8  _unlock                                                              
0001873d  abort                                                                
0001d809  atoi                                                                 
ffffffff  binit                                                                
0001d079  close                                                                
0001dc51  copy_in                                                              
00020885  copysign                                                             
00020885  copysignl                                                            
00006459  cos                                                                  
00006459  cosl                                                                 
0800a900  edmaDbg                                                              
0800d95c  errno                                                                
0001e3fd  exit                                                                 
0001a2f5  fflush                                                               
0001f5e1  finddevice                                                           
000148a5  floor                                                                
000148a5  floorl                                                               
0001937d  fputc                                                                
00020ea1  free                                                                 
0001b1d1  frexp                                                                
0001b1d1  frexpl                                                               
0001c225  fseek                                                                
000226f0  gADCBufFxnTable                                                      
00022744  gADCBufHwCfg                                                         
0800d220  gCBUFFHwAttribute                                                    
0800d4f0  gCBUFFInterfaceFxn                                                   
0800b568  gCLI                                                                 
0800cb10  gCLIMMWaveControlCfg                                                 
0800ca68  gCLIMMWaveExtensionTable                                             
0800ca40  gCLIMMWaveOpenCfg                                                    
0800ca38  gCLI_mmwave_freq_scale_factor                                        
0800d944  gCRCRegister                                                         
0800ade8  gCalibDataStorage                                                    
0800d994  gDPCTCM                                                              
0800d630  gDPC_ObjDetRangeHWACfg                                               
0800d948  gDPM                                                                 
0800d8c4  gDPMHwAttrib                                                         
0002240c  gDPMMessageFxnTable                                                  
0800d7fc  gDPMRemoteTable                                                      
0800d880  gESMHwCfgAttrs                                                       
00022374  gEdmaHwAttrs                                                         
0800bbf8  gEsmMCB                                                              
0800d8cc  gGPIOHwAtrrib                                                        
0800b710  gGPIOMCB                                                             
0800bb68  gHSIHeaderMCB                                                        
0800d69c  gHWADriverPtr                                                        
0800d55c  gHWAHwCfg                                                            
0800d824  gHwaEDMAChanMapping                                                  
0800d754  gInterleavedTransferFxn                                              
0800bc74  gMMWave_DualcoreMCB                                                  
0800b9c4  gMMWave_MCB                                                          
0800d39c  gMailboxMCB                                                          
0800d76c  gMailboxMssBssHwCfg                                                  
0800d784  gMailboxMssDssHwCfg                                                  
0800bc68  gMmwDemoFlash                                                        
51000000  gMmwL3                                                               
0800be20  gMmwMssMCB                                                           
0800d79c  gMultipleChirpNonInterleavedTransferFxn                              
0800d7b4  gNonInterleavedTransferFxn                                           
0800bb64  gObjDetObj                                                           
0800d950  gPinmuxRegs                                                          
0800d954  gQSPIDriverPtr                                                       
0800d93c  gQSPIFlashHwCfg                                                      
0800d834  gQSPIHwCfg                                                           
0800bc88  gRFLdoBypassCfg                                                      
0800d6a0  gSOCHwAttrib                                                         
0800d5e4  gUartSciFxnTable                                                     
0800d2f4  gUartSciHwCfg                                                        
0001e441  getdevice                                                            
0800bc90  gts                                                                  
0800bc8c  gtsIdx                                                               
00013bd5  ldexp                                                                
00013bd5  ldexpl                                                               
00020021  lseek                                                                
0000ec41  main                                                                 
0800d960  main_func_sp                                                         
0001facf  malloc                                                               
00021421  mathUtils_ceilLog2                                                   
00021517  mathUtils_floorLog2                                                  
00011111  mathUtils_genWindow                                                  
00021505  mathUtils_pow2roundup                                                
00020149  memccpy                                                              
0002016f  memcmp                                                               
0001855d  memcpy                                                               
0001aa6b  memset                                                               
0001ee2f  mmwDemo_cfgAnalogMonitor                                             
00020195  mmwDemo_cfgRxSaturationMonitor                                       
00020a6b  mmwDemo_cfgRxSigImgMonitor                                           
00020049  mmwDemo_flashEraseOneSector                                          
0001b4ed  mmwDemo_flashInit                                                    
0001d0d1  mmwDemo_flashRead                                                    
0001e031  mmwDemo_flashWrite                                                   
0800bc7c  parmbuf                                                              
0800cbdc  partInfoStringArray                                                  
0001937d  putc                                                                 
0001a3f5  putchar                                                              
0800d94c  regionId                                                             
0001fd3d  remove                                                               
00021435  rlAppendDummy                                                        
0001f305  rlAppendSubBlock                                                     
0001fe3b  rlDeviceGetMmWaveLinkVersion                                         
0001fc31  rlDeviceGetMssVersion                                                
0002108d  rlDeviceGetRfVersion                                                 
0001e079  rlDeviceGetVersion                                                   
0001d8a9  rlDeviceIdentifyCmdDir                                               
0001bfc9  rlDevicePowerOff                                                     
000197f1  rlDevicePowerOn                                                      
000205d5  rlDeviceSetHsiClk                                                    
0001b245  rlDriverAsyncEventHandler                                            
000210a5  rlDriverCalCRC                                                       
0001caf7  rlDriverCalChkSum                                                    
0000e019  rlDriverCmdInvoke                                                    
00010385  rlDriverCmdSendRetry                                                 
00020071  rlDriverConstructInMsg                                               
000185f9  rlDriverConstructOutMsg                                              
00018eed  rlDriverDeInit                                                       
0001a375  rlDriverExecuteGetApi                                                
0001bef9  rlDriverExecuteSetApi                                                
000210bd  rlDriverFillPayload                                                  
00019909  rlDriverGetHandle                                                    
0001a8e5  rlDriverGetPlatformId                                                
0001bf61  rlDriverHostIrqHandler                                               
00013105  rlDriverInit                                                         
00021449  rlDriverIsDeviceMapValid                                             
00014a61  rlDriverMsgCmdReply                                                  
0000d16d  rlDriverMsgRead                                                      
00018f81  rlDriverMsgReadCmdCtx                                                
0001987d  rlDriverMsgReadSpawnCtx                                              
00016195  rlDriverMsgWrite                                                     
0001e0c1  rlDriverOsiInit                                                      
00019015  rlDriverProcRdMsg                                                    
000138f1  rlDriverRdVerifyMsg                                                  
0000cc35  rlDriverRxHdrRead                                                    
0001e8d1  rlDriverValidateHdr                                                  
0001d8f9  rlDriverVerifyCRC                                                    
000178ad  rlDriverWaitForResponse                                              
000205f9  rlEnableContMode                                                     
00020ebb  rlGetRfDieId                                                         
0001e6cd  rlGetSubBlock                                                        
000217c9  rlGetSubBlockId                                                      
000217cf  rlGetSubBlockLen                                                     
000201bb  rlRfAnaMonConfig                                                     
00015529  rlRfCalibDataRestore                                                 
00014269  rlRfCalibDataStore                                                   
000201e1  rlRfGetTemperatureReport                                             
000208a5  rlRfInit                                                             
00020207  rlRfInitCalibConfig                                                  
0001451d  rlRfPhShiftCalibDataRestore                                          
00014351  rlRfPhShiftCalibDataStore                                            
0002022d  rlRfRunTimeCalibConfig                                               
00020253  rlRfRxIfSatMonConfig                                                 
00020279  rlRfRxSigImgMonConfig                                                
0002029f  rlRfSetCalMonFreqLimitConfig                                         
0002061d  rlRfSetCalMonTimeUnitConfig                                          
000202c5  rlRfSetDeviceCfg                                                     
000202eb  rlRfSetLdoBypassConfig                                               
0001f885  rlSensorStart                                                        
0001fc5d  rlSensorStop                                                         
00020311  rlSetAdcOutConfig                                                    
00017955  rlSetAdvFrameConfig                                                  
00020337  rlSetBpmCommonConfig                                                 
0002035d  rlSetChannelConfig                                                   
000155f5  rlSetChirpConfig                                                     
00020383  rlSetContModeConfig                                                  
00015b75  rlSetFrameConfig                                                     
00020641  rlSetLowPowerModeConfig                                              
00014dc1  rlSetMultiBpmChirpConfig                                             
00016de9  rlSetProfileConfig                                                   
0800c750  rl_rxMsg                                                             
0800c650  rl_txMsg                                                             
00013bd5  scalbn                                                               
00013bd5  scalbnl                                                              
00014b3d  setvbuf                                                              
0001e911  sprintf                                                              
0001f2cd  sscanf                                                               
0002128d  strchr                                                               
000210ed  strcmp                                                               
0002145d  strcpy                                                               
000207a1  strcspn                                                              
000212a3  strlen                                                               
0001f33b  strncpy                                                              
00021105  strrchr                                                              
0001fe65  strspn                                                               
0000684d  strtod                                                               
0001e951  strtok                                                               
00010eb5  strtol                                                               
0000684d  strtold                                                              
0000c4e9  strtoll                                                              
00011d71  strtoul                                                              
0000f4d5  strtoull                                                             
0800d654  ti_sysbios_BIOS_Module__state__V                                     
00021195  ti_sysbios_BIOS_RtsGateProxy_Handle__label__S                        
0001940d  ti_sysbios_BIOS_RtsGateProxy_enter__E                                
0001999d  ti_sysbios_BIOS_RtsGateProxy_leave__E                                
00021841  ti_sysbios_BIOS_RtsGateProxy_query__E                                
0001fc89  ti_sysbios_BIOS_atExitFunc__I                                        
00020a89  ti_sysbios_BIOS_errorRaiseHook__I                                    
000212b9  ti_sysbios_BIOS_exitFunc__I                                          
000215f1  ti_sysbios_BIOS_getCpuFreq__E                                        
00021891  ti_sysbios_BIOS_linkedWithIncorrectBootLibrary__E                    
000146e3  ti_sysbios_BIOS_nullFunc__I                                          
00020665  ti_sysbios_BIOS_registerRTSLock__I                                   
00020689  ti_sysbios_BIOS_removeRTSLock__I                                     
00020cbd  ti_sysbios_BIOS_rtsLock__I                                           
0002111d  ti_sysbios_BIOS_rtsUnlock__I                                         
00021601  ti_sysbios_BIOS_setThreadType__E                                     
0001f8b5  ti_sysbios_BIOS_startFunc__I                                         
00021611  ti_sysbios_BIOS_start__E                                             
00016a64  ti_sysbios_family_arm_IntrinsicsSupport_maxbitA__I                   
00016a64  ti_sysbios_family_arm_IntrinsicsSupport_maxbit__E                    
00019a2d  ti_sysbios_family_arm_TaskSupport_Module__startupDone__S             
0001a868  ti_sysbios_family_arm_TaskSupport_buildTaskStack                     
00021711  ti_sysbios_family_arm_TaskSupport_checkStack__E                      
00021721  ti_sysbios_family_arm_TaskSupport_getStackAlignment__E               
00020c84  ti_sysbios_family_arm_TaskSupport_glue                               
000227a8  ti_sysbios_family_arm_TaskSupport_stackAlignment__C                  
000208d1  ti_sysbios_family_arm_TaskSupport_stackUsed__E                       
0001f8f1  ti_sysbios_family_arm_TaskSupport_start__E                           
00020ca0  ti_sysbios_family_arm_TaskSupport_swap__E                            
0800d968  ti_sysbios_family_arm_a15_TimestampProvider_Module__state__V         
00021621  ti_sysbios_family_arm_a15_TimestampProvider_Module_startup__E        
000208f1  ti_sysbios_family_arm_a15_TimestampProvider_autoRefreshFxn__I        
000217d5  ti_sysbios_family_arm_a15_TimestampProvider_get32__E                 
0001f621  ti_sysbios_family_arm_a15_TimestampProvider_get64__E                 
000215f1  ti_sysbios_family_arm_a15_TimestampProvider_getFreq__E               
00021563  ti_sysbios_family_arm_a15_TimestampProvider_getOverflowCCNT__I       
00020ed5  ti_sysbios_family_arm_a15_TimestampProvider_initCCNT__I              
000227ac  ti_sysbios_family_arm_exc_Exception_E_dataAbort__C                   
000227b0  ti_sysbios_family_arm_exc_Exception_E_prefetchAbort__C               
000227b4  ti_sysbios_family_arm_exc_Exception_E_swi__C                         
000227b8  ti_sysbios_family_arm_exc_Exception_E_undefinedInstruction__C        
0800d93a  ti_sysbios_family_arm_exc_Exception_Module_State_0_excActive__A      
0800d96c  ti_sysbios_family_arm_exc_Exception_Module_State_0_excContext__A     
0800d970  ti_sysbios_family_arm_exc_Exception_Module_State_0_excStackBuffers__A
08009900  ti_sysbios_family_arm_exc_Exception_Module_State_0_excStack_0__A     
0800d974  ti_sysbios_family_arm_exc_Exception_Module_State_0_excStack__A       
00021d4e  ti_sysbios_family_arm_exc_Exception_Module__id__C                    
0800d810  ti_sysbios_family_arm_exc_Exception_Module__state__V                 
00021731  ti_sysbios_family_arm_exc_Exception_Module_startup__E                
000092c1  ti_sysbios_family_arm_exc_Exception_excDumpContext__I                
00015114  ti_sysbios_family_arm_exc_Exception_excHandlerAsm__I                 
0001517c  ti_sysbios_family_arm_exc_Exception_excHandlerDataAsm__I             
0000ef31  ti_sysbios_family_arm_exc_Exception_excHandler__I                    
000227bc  ti_sysbios_family_arm_exc_Exception_excHookFuncs__A                  
000227c0  ti_sysbios_family_arm_exc_Exception_excHookFuncs__C                  
0001c288  ti_sysbios_family_arm_exc_Exception_initCore0__I                     
000227c4  ti_sysbios_family_arm_v7a_Pmu_A_invalidCounterId__C                  
000227c8  ti_sysbios_family_arm_v7a_Pmu_Module__diagsEnabled__C                
000227cc  ti_sysbios_family_arm_v7a_Pmu_Module__diagsIncluded__C               
000227d0  ti_sysbios_family_arm_v7a_Pmu_Module__diagsMask__C                   
00021fae  ti_sysbios_family_arm_v7a_Pmu_Module__id__C                          
0800d88c  ti_sysbios_family_arm_v7a_Pmu_Module__state__V                       
00020911  ti_sysbios_family_arm_v7a_Pmu_Module_startup__E                      
0001c354  ti_sysbios_family_arm_v7a_Pmu_configureCounterI__I                   
00015e91  ti_sysbios_family_arm_v7a_Pmu_configureCounter__E                    
00021630  ti_sysbios_family_arm_v7a_Pmu_disableInterruptI__E                   
00021640  ti_sysbios_family_arm_v7a_Pmu_enableInterruptI__E                    
0001c3c4  ti_sysbios_family_arm_v7a_Pmu_getCountI__E                           
00019911  ti_sysbios_family_arm_v7a_Pmu_getCount__E                            
0001c628  ti_sysbios_family_arm_v7a_Pmu_getEnabled__E                          
00021650  ti_sysbios_family_arm_v7a_Pmu_getNumCounters__E                      
00021134  ti_sysbios_family_arm_v7a_Pmu_initCounters__I                        
00021660  ti_sysbios_family_arm_v7a_Pmu_startCounterI__E                       
00019411  ti_sysbios_family_arm_v7a_Pmu_startCounter__E                        
00021670  ti_sysbios_family_arm_v7a_Pmu_stopCounterI__E                        
000227d4  ti_sysbios_family_arm_v7r_tms570_Core_E_mismatchedIds__C             
00022a40  ti_sysbios_family_arm_v7r_tms570_Core_Module__id__C                  
0001e491  ti_sysbios_family_arm_v7r_tms570_Core_Module_startup__E              
00021545  ti_sysbios_family_arm_v7r_tms570_Core_getId__E                       
000227d8  ti_sysbios_family_arm_v7r_tms570_Core_id__C                          
000227dc  ti_sysbios_family_arm_v7r_vim_Hwi_A_badChannelId__C                  
000227e0  ti_sysbios_family_arm_v7r_vim_Hwi_E_alreadyDefined__C                
000227e4  ti_sysbios_family_arm_v7r_vim_Hwi_E_badIntNum__C                     
000227e8  ti_sysbios_family_arm_v7r_vim_Hwi_E_phantomInterrupt__C              
000227ec  ti_sysbios_family_arm_v7r_vim_Hwi_E_undefined__C                     
000227f0  ti_sysbios_family_arm_v7r_vim_Hwi_E_unsupportedMaskingOption__C      
000199a1  ti_sysbios_family_arm_v7r_vim_Hwi_Instance_finalize__E               
00011921  ti_sysbios_family_arm_v7r_vim_Hwi_Instance_init__E                   
000227f4  ti_sysbios_family_arm_v7r_vim_Hwi_LD_end__C                          
000227f8  ti_sysbios_family_arm_v7r_vim_Hwi_LM_begin__C                        
0800cda0  ti_sysbios_family_arm_v7r_vim_Hwi_Module_State_0_dispatchTable__A    
0800e998  ti_sysbios_family_arm_v7r_vim_Hwi_Module_State_0_fiqStack__A         
000227fc  ti_sysbios_family_arm_v7r_vim_Hwi_Module__diagsEnabled__C            
00022800  ti_sysbios_family_arm_v7r_vim_Hwi_Module__diagsIncluded__C           
00022804  ti_sysbios_family_arm_v7r_vim_Hwi_Module__diagsMask__C               
00022a42  ti_sysbios_family_arm_v7r_vim_Hwi_Module__id__C                      
00022a44  ti_sysbios_family_arm_v7r_vim_Hwi_Module__loggerDefined__C           
00022808  ti_sysbios_family_arm_v7r_vim_Hwi_Module__loggerFxn1__C              
0002280c  ti_sysbios_family_arm_v7r_vim_Hwi_Module__loggerFxn8__C              
00022810  ti_sysbios_family_arm_v7r_vim_Hwi_Module__loggerObj__C               
0800d8d4  ti_sysbios_family_arm_v7r_vim_Hwi_Module__root__V                    
0002114d  ti_sysbios_family_arm_v7r_vim_Hwi_Module__startupDone__F             
0002114d  ti_sysbios_family_arm_v7r_vim_Hwi_Module__startupDone__S             
0800d528  ti_sysbios_family_arm_v7r_vim_Hwi_Module__state__V                   
00013cd1  ti_sysbios_family_arm_v7r_vim_Hwi_Module_startup__E                  
00022814  ti_sysbios_family_arm_v7r_vim_Hwi_NUM_INTERRUPTS__C                  
00022578  ti_sysbios_family_arm_v7r_vim_Hwi_Object__DESC__C                    
000223ac  ti_sysbios_family_arm_v7r_vim_Hwi_Object__PARAMS__C                  
00020931  ti_sysbios_family_arm_v7r_vim_Hwi_Object__delete__S                  
0800d58c  ti_sysbios_family_arm_v7r_vim_Hwi_Object__table__V                   
00021165  ti_sysbios_family_arm_v7r_vim_Hwi_Params__init__S                    
000221a0  ti_sysbios_family_arm_v7r_vim_Hwi_channelMap__A                      
00022818  ti_sysbios_family_arm_v7r_vim_Hwi_channelMap__C                      
00020ce1  ti_sysbios_family_arm_v7r_vim_Hwi_clearInterrupt__E                  
0001d421  ti_sysbios_family_arm_v7r_vim_Hwi_create                             
0001b55d  ti_sysbios_family_arm_v7r_vim_Hwi_delete                             
00020951  ti_sysbios_family_arm_v7r_vim_Hwi_disableInterrupt__E                
0000c8a1  ti_sysbios_family_arm_v7r_vim_Hwi_dispatchIRQC__I                    
000190a8  ti_sysbios_family_arm_v7r_vim_Hwi_dispatchIRQ__I                     
00020971  ti_sysbios_family_arm_v7r_vim_Hwi_enableInterrupt__E                 
0001dca1  ti_sysbios_family_arm_v7r_vim_Hwi_getStackInfo__E                    
00018601  ti_sysbios_family_arm_v7r_vim_Hwi_initIntController__I               
0001f010  ti_sysbios_family_arm_v7r_vim_Hwi_init__I                            
00022754  ti_sysbios_family_arm_v7r_vim_Hwi_intReqEnaSet__A                    
0002281c  ti_sysbios_family_arm_v7r_vim_Hwi_intReqEnaSet__C                    
000186a1  ti_sysbios_family_arm_v7r_vim_Hwi_mapChannel__I                      
00022820  ti_sysbios_family_arm_v7r_vim_Hwi_phantomFunc__C                     
0001c2f1  ti_sysbios_family_arm_v7r_vim_Hwi_phantomIntHandler__I               
0000f7a1  ti_sysbios_family_arm_v7r_vim_Hwi_reconfig__E                        
000217e1  ti_sysbios_family_arm_v7r_vim_Hwi_startup__E                         
00021741  ti_sysbios_family_arm_v7r_vim_Hwi_switchFromBootStack__E             
00022824  ti_sysbios_family_arm_v7r_vim_Hwi_taskDisable__C                     
00022828  ti_sysbios_family_arm_v7r_vim_Hwi_taskRestoreHwi__C                  
00000000  ti_sysbios_family_arm_v7r_vim_Hwi_vectors                            
fffffdec  ti_sysbios_family_arm_v7r_vim_Hwi_vim                                
00022764  ti_sysbios_family_arm_v7r_vim_Hwi_wakeEnaSet__A                      
0002282c  ti_sysbios_family_arm_v7r_vim_Hwi_wakeEnaSet__C                      
000189f4  ti_sysbios_family_xxx_Hwi_switchAndRunDispatchC                      
000189a8  ti_sysbios_family_xxx_Hwi_switchAndRunFunc                           
0002117d  ti_sysbios_gates_GateHwi_Handle__label__S                            
000218a1  ti_sysbios_gates_GateHwi_Instance_init__E                            
000224a8  ti_sysbios_gates_GateHwi_Module__FXNS__C                             
0800d8dc  ti_sysbios_gates_GateHwi_Module__root__V                             
00022598  ti_sysbios_gates_GateHwi_Object__DESC__C                             
00022678  ti_sysbios_gates_GateHwi_Object__PARAMS__C                           
0001f921  ti_sysbios_gates_GateHwi_Object__create__S                           
00020991  ti_sysbios_gates_GateHwi_Object__delete__S                           
0800d978  ti_sysbios_gates_GateHwi_Object__table__V                            
000217c1  ti_sysbios_gates_GateHwi_enter__E                                    
000217f1  ti_sysbios_gates_GateHwi_leave__E                                    
00021831  ti_sysbios_gates_GateHwi_query__E                                    
00022830  ti_sysbios_gates_GateMutex_A_badContext__C                           
00021195  ti_sysbios_gates_GateMutex_Handle__label__S                          
00022834  ti_sysbios_gates_GateMutex_Instance_State_sem__O                     
00021681  ti_sysbios_gates_GateMutex_Instance_finalize__E                      
00020d01  ti_sysbios_gates_GateMutex_Instance_init__E                          
000224cc  ti_sysbios_gates_GateMutex_Module__FXNS__C                           
00022838  ti_sysbios_gates_GateMutex_Module__diagsEnabled__C                   
0002283c  ti_sysbios_gates_GateMutex_Module__diagsIncluded__C                  
00022840  ti_sysbios_gates_GateMutex_Module__diagsMask__C                      
00022a46  ti_sysbios_gates_GateMutex_Module__id__C                             
0800d8e4  ti_sysbios_gates_GateMutex_Module__root__V                           
000225b8  ti_sysbios_gates_GateMutex_Object__DESC__C                           
00022690  ti_sysbios_gates_GateMutex_Object__PARAMS__C                         
0001f951  ti_sysbios_gates_GateMutex_Object__create__S                         
000206ad  ti_sysbios_gates_GateMutex_Object__delete__S                         
0800d474  ti_sysbios_gates_GateMutex_Object__table__V                          
000169b1  ti_sysbios_gates_GateMutex_enter__E                                  
00020d21  ti_sysbios_gates_GateMutex_leave__E                                  
00021841  ti_sysbios_gates_GateMutex_query__E                                  
00021545  ti_sysbios_hal_Core_CoreProxy_getId__E                               
00022844  ti_sysbios_hal_Hwi_E_stackOverflow__C                                
0002114d  ti_sysbios_hal_Hwi_HwiProxy_Module__startupDone__S                   
00021165  ti_sysbios_hal_Hwi_HwiProxy_Params__init__S                          
00020ce1  ti_sysbios_hal_Hwi_HwiProxy_clearInterrupt__E                        
00020951  ti_sysbios_hal_Hwi_HwiProxy_disableInterrupt__E                      
00020971  ti_sysbios_hal_Hwi_HwiProxy_enableInterrupt__E                       
0001dca1  ti_sysbios_hal_Hwi_HwiProxy_getStackInfo__E                          
000217e1  ti_sysbios_hal_Hwi_HwiProxy_startup__E                               
00021741  ti_sysbios_hal_Hwi_HwiProxy_switchFromBootStack__E                   
00022a48  ti_sysbios_hal_Hwi_Module__id__C                                     
00021521  ti_sysbios_hal_Hwi_Module_startup__E                                 
0800d8ec  ti_sysbios_hal_Hwi_Object__table__V                                  
0001f051  ti_sysbios_hal_Hwi_checkStack                                        
00020ce1  ti_sysbios_hal_Hwi_clearInterrupt__E                                 
00020951  ti_sysbios_hal_Hwi_disableInterrupt__E                               
00020971  ti_sysbios_hal_Hwi_enableInterrupt__E                                
0001dca1  ti_sysbios_hal_Hwi_getStackInfo__E                                   
0001f761  ti_sysbios_hal_Hwi_initStack                                         
000217e1  ti_sysbios_hal_Hwi_startup__E                                        
00021741  ti_sysbios_hal_Hwi_switchFromBootStack__E                            
00022848  ti_sysbios_heaps_HeapBuf_Instance_State_freeList__O                  
0800d97c  ti_sysbios_heaps_HeapBuf_Module__state__V                            
00014091  ti_sysbios_heaps_HeapBuf_Module_startup__E                           
0002284c  ti_sysbios_heaps_HeapBuf_Object__count__C                            
00021691  ti_sysbios_heaps_HeapBuf_Object__get__S                              
00022850  ti_sysbios_heaps_HeapBuf_numConstructedHeaps__C                      
00022854  ti_sysbios_heaps_HeapMem_A_align__C                                  
00022858  ti_sysbios_heaps_HeapMem_A_heapSize__C                               
0002285c  ti_sysbios_heaps_HeapMem_A_invalidFree__C                            
00022860  ti_sysbios_heaps_HeapMem_A_zeroBlock__C                              
00022864  ti_sysbios_heaps_HeapMem_E_memory__C                                 
000211ad  ti_sysbios_heaps_HeapMem_Handle__label__S                            
08000000  ti_sysbios_heaps_HeapMem_Instance_State_0_buf__A                     
00010621  ti_sysbios_heaps_HeapMem_Instance_init__E                            
00021195  ti_sysbios_heaps_HeapMem_Module_GateProxy_Handle__label__S           
0001c2ed  ti_sysbios_heaps_HeapMem_Module_GateProxy_enter__E                   
0001dc9d  ti_sysbios_heaps_HeapMem_Module_GateProxy_leave__E                   
00021841  ti_sysbios_heaps_HeapMem_Module_GateProxy_query__E                   
00022434  ti_sysbios_heaps_HeapMem_Module__FXNS__C                             
00022868  ti_sysbios_heaps_HeapMem_Module__diagsEnabled__C                     
0002286c  ti_sysbios_heaps_HeapMem_Module__diagsIncluded__C                    
00022870  ti_sysbios_heaps_HeapMem_Module__diagsMask__C                        
00022874  ti_sysbios_heaps_HeapMem_Module__gateObj__C                          
00022a4a  ti_sysbios_heaps_HeapMem_Module__id__C                               
0800d8f4  ti_sysbios_heaps_HeapMem_Module__root__V                             
000225d8  ti_sysbios_heaps_HeapMem_Object__DESC__C                             
000224f0  ti_sysbios_heaps_HeapMem_Object__PARAMS__C                           
00022878  ti_sysbios_heaps_HeapMem_Object__count__C                            
0001f981  ti_sysbios_heaps_HeapMem_Object__create__S                           
000209b1  ti_sysbios_heaps_HeapMem_Object__delete__S                           
00021471  ti_sysbios_heaps_HeapMem_Object__get__S                              
0800d7cc  ti_sysbios_heaps_HeapMem_Object__table__V                            
0000a801  ti_sysbios_heaps_HeapMem_allocUnprotected__E                         
0001c631  ti_sysbios_heaps_HeapMem_alloc__E                                    
00008b11  ti_sysbios_heaps_HeapMem_freeUnprotected__E                          
0001f9b1  ti_sysbios_heaps_HeapMem_free__E                                     
0001d481  ti_sysbios_heaps_HeapMem_getStats__E                                 
0001f091  ti_sysbios_heaps_HeapMem_init__I                                     
00021801  ti_sysbios_heaps_HeapMem_isBlocking__E                               
0002287c  ti_sysbios_heaps_HeapMem_reqAlign__C                                 
00022880  ti_sysbios_knl_Clock_LM_begin__C                                     
00022884  ti_sysbios_knl_Clock_LM_tick__C                                      
00022888  ti_sysbios_knl_Clock_LW_delayed__C                                   
0002288c  ti_sysbios_knl_Clock_Module_State_clockQ__O                          
00022890  ti_sysbios_knl_Clock_Module__diagsEnabled__C                         
00022894  ti_sysbios_knl_Clock_Module__diagsIncluded__C                        
00022898  ti_sysbios_knl_Clock_Module__diagsMask__C                            
00022a4c  ti_sysbios_knl_Clock_Module__id__C                                   
00022a4e  ti_sysbios_knl_Clock_Module__loggerDefined__C                        
0002289c  ti_sysbios_knl_Clock_Module__loggerFxn1__C                           
000228a0  ti_sysbios_knl_Clock_Module__loggerFxn2__C                           
000228a4  ti_sysbios_knl_Clock_Module__loggerObj__C                            
0800d5b8  ti_sysbios_knl_Clock_Module__state__V                                
000206d1  ti_sysbios_knl_Clock_Module_startup__E                               
0800d6c0  ti_sysbios_knl_Clock_Object__table__V                                
00021219  ti_sysbios_knl_Clock_TimerProxy_Module__startupDone__S               
0001dd8d  ti_sysbios_knl_Clock_TimerProxy_getMaxTicks__E                       
00016261  ti_sysbios_knl_Clock_TimerProxy_startup__E                           
0001fcb5  ti_sysbios_knl_Clock_doTick__I                                       
0001c361  ti_sysbios_knl_Clock_logTick__E                                      
000109e1  ti_sysbios_knl_Clock_workFunc__E                                     
00022774  ti_sysbios_knl_Idle_funcList__A                                      
00022780  ti_sysbios_knl_Idle_funcList__C                                      
000212d1  ti_sysbios_knl_Idle_loop__E                                          
000200a1  ti_sysbios_knl_Idle_run__E                                           
00016a64  ti_sysbios_knl_Intrinsics_SupportProxy_maxbit__E                     
00016a64  ti_sysbios_knl_Intrinsics_maxbit__E                                  
00021811  ti_sysbios_knl_Queue_Instance_init__E                                
0800d8fc  ti_sysbios_knl_Queue_Module__root__V                                 
000225f8  ti_sysbios_knl_Queue_Object__DESC__C                                 
000226a8  ti_sysbios_knl_Queue_Object__PARAMS__C                               
0001c435  ti_sysbios_knl_Queue_Object__get__S                                  
0001fce1  ti_sysbios_knl_Queue_construct                                       
00020d3d  ti_sysbios_knl_Queue_destruct                                        
00021701  ti_sysbios_knl_Queue_empty__E                                        
000228a8  ti_sysbios_knl_Semaphore_A_badContext__C                             
000228ac  ti_sysbios_knl_Semaphore_A_noEvents__C                               
000228b0  ti_sysbios_knl_Semaphore_A_overflow__C                               
000228b4  ti_sysbios_knl_Semaphore_A_pendTaskDisabled__C                       
000228b8  ti_sysbios_knl_Semaphore_Instance_State_pendQ__O                     
000216a1  ti_sysbios_knl_Semaphore_Instance_finalize__E                        
00018741  ti_sysbios_knl_Semaphore_Instance_init__E                            
000228bc  ti_sysbios_knl_Semaphore_LM_pend__C                                  
000228c0  ti_sysbios_knl_Semaphore_LM_post__C                                  
000228c4  ti_sysbios_knl_Semaphore_Module__diagsEnabled__C                     
000228c8  ti_sysbios_knl_Semaphore_Module__diagsIncluded__C                    
000228cc  ti_sysbios_knl_Semaphore_Module__diagsMask__C                        
00022a50  ti_sysbios_knl_Semaphore_Module__id__C                               
00022a52  ti_sysbios_knl_Semaphore_Module__loggerDefined__C                    
000228d0  ti_sysbios_knl_Semaphore_Module__loggerFxn2__C                       
000228d4  ti_sysbios_knl_Semaphore_Module__loggerFxn4__C                       
000228d8  ti_sysbios_knl_Semaphore_Module__loggerObj__C                        
0800d904  ti_sysbios_knl_Semaphore_Module__root__V                             
00022618  ti_sysbios_knl_Semaphore_Object__DESC__C                             
00022514  ti_sysbios_knl_Semaphore_Object__PARAMS__C                           
000206f5  ti_sysbios_knl_Semaphore_Object__delete__S                           
000211c5  ti_sysbios_knl_Semaphore_Params__init__S                             
0001f9e1  ti_sysbios_knl_Semaphore_construct                                   
0001f655  ti_sysbios_knl_Semaphore_create                                      
0001f04d  ti_sysbios_knl_Semaphore_delete                                      
000209d1  ti_sysbios_knl_Semaphore_destruct                                    
0001faa1  ti_sysbios_knl_Semaphore_pendTimeout__I                              
00007351  ti_sysbios_knl_Semaphore_pend__E                                     
0000f0a1  ti_sysbios_knl_Semaphore_post__E                                     
000228dc  ti_sysbios_knl_Task_A_badPriority__C                                 
000228e0  ti_sysbios_knl_Task_A_badTaskState__C                                
000228e4  ti_sysbios_knl_Task_A_badThreadType__C                               
000228e8  ti_sysbios_knl_Task_A_badTimeout__C                                  
000228ec  ti_sysbios_knl_Task_A_noPendElem__C                                  
000228f0  ti_sysbios_knl_Task_A_sleepTaskDisabled__C                           
000228f4  ti_sysbios_knl_Task_E_spOutOfBounds__C                               
000228f8  ti_sysbios_knl_Task_E_stackOverflow__C                               
0800bc84  ti_sysbios_knl_Task_Instance_State_0_hookEnv__A                      
0800b248  ti_sysbios_knl_Task_Instance_State_0_stack__A                        
000082c1  ti_sysbios_knl_Task_Instance_finalize__E                             
0000c101  ti_sysbios_knl_Task_Instance_init__E                                 
000228fc  ti_sysbios_knl_Task_LD_block__C                                      
00022900  ti_sysbios_knl_Task_LD_exit__C                                       
00022904  ti_sysbios_knl_Task_LD_ready__C                                      
00022908  ti_sysbios_knl_Task_LM_sleep__C                                      
0002290c  ti_sysbios_knl_Task_LM_switch__C                                     
0800d980  ti_sysbios_knl_Task_Module_State_0_idleTask__A                       
0800d128  ti_sysbios_knl_Task_Module_State_0_readyQ__A                         
00022910  ti_sysbios_knl_Task_Module_State_inactiveQ__O                        
00022914  ti_sysbios_knl_Task_Module__diagsEnabled__C                          
00022918  ti_sysbios_knl_Task_Module__diagsIncluded__C                         
0002291c  ti_sysbios_knl_Task_Module__diagsMask__C                             
00022a54  ti_sysbios_knl_Task_Module__id__C                                    
00022a56  ti_sysbios_knl_Task_Module__loggerDefined__C                         
00022920  ti_sysbios_knl_Task_Module__loggerFxn2__C                            
00022924  ti_sysbios_knl_Task_Module__loggerFxn4__C                            
00022928  ti_sysbios_knl_Task_Module__loggerObj__C                             
0800d898  ti_sysbios_knl_Task_Module__root__V                                  
0800d3ec  ti_sysbios_knl_Task_Module__state__V                                 
00017211  ti_sysbios_knl_Task_Module_startup__E                                
00022638  ti_sysbios_knl_Task_Object__DESC__C                                  
00022278  ti_sysbios_knl_Task_Object__PARAMS__C                                
0002292c  ti_sysbios_knl_Task_Object__count__C                                 
000216b1  ti_sysbios_knl_Task_Object__get__S                                   
00022930  ti_sysbios_knl_Task_Object__heap__C                                  
0800d298  ti_sysbios_knl_Task_Object__table__V                                 
000211dd  ti_sysbios_knl_Task_Params__init__S                                  
00019a2d  ti_sysbios_knl_Task_SupportProxy_Module__startupDone__S              
00021711  ti_sysbios_knl_Task_SupportProxy_checkStack__E                       
00021721  ti_sysbios_knl_Task_SupportProxy_getStackAlignment__E                
000208d1  ti_sysbios_knl_Task_SupportProxy_stackUsed__E                        
0001f8f1  ti_sysbios_knl_Task_SupportProxy_start__E                            
00020ca0  ti_sysbios_knl_Task_SupportProxy_swap__E                             
00022934  ti_sysbios_knl_Task_allBlockedFunc__C                                
0001e4e1  ti_sysbios_knl_Task_allBlockedFunction__I                            
000181b1  ti_sysbios_knl_Task_blockI__E                                        
000156c1  ti_sysbios_knl_Task_checkStacks__E                                   
0001dced  ti_sysbios_knl_Task_create                                           
00022938  ti_sysbios_knl_Task_defaultStackHeap__C                              
0002293c  ti_sysbios_knl_Task_defaultStackSize__C                              
000216c1  ti_sysbios_knl_Task_disable__E                                       
00021201  ti_sysbios_knl_Task_enter__I                                         
00013601  ti_sysbios_knl_Task_exit__E                                          
000226c0  ti_sysbios_knl_Task_hooks__A                                         
00022788  ti_sysbios_knl_Task_hooks__C                                         
00022940  ti_sysbios_knl_Task_numConstructedTasks__C                           
0000fa61  ti_sysbios_knl_Task_postInit__I                                      
00020d61  ti_sysbios_knl_Task_restoreHwi__E                                    
000122b1  ti_sysbios_knl_Task_schedule__I                                      
000212f1  ti_sysbios_knl_Task_sleepTimeout__I                                  
0000b6f1  ti_sysbios_knl_Task_sleep__E                                         
00013dc1  ti_sysbios_knl_Task_startCore__E                                     
00021851  ti_sysbios_knl_Task_startup__E                                       
0001dd41  ti_sysbios_knl_Task_stat__E                                          
000194a1  ti_sysbios_knl_Task_unblockI__E                                      
00022944  ti_sysbios_timers_rti_Timer_E_cannotSupport__C                       
0800d7e4  ti_sysbios_timers_rti_Timer_Module_State_0_device__A                 
0800d90c  ti_sysbios_timers_rti_Timer_Module_State_0_handles__A                
0800d854  ti_sysbios_timers_rti_Timer_Module_State_0_intFreqs__A               
00022948  ti_sysbios_timers_rti_Timer_Module__diagsEnabled__C                  
0002294c  ti_sysbios_timers_rti_Timer_Module__diagsIncluded__C                 
00022950  ti_sysbios_timers_rti_Timer_Module__diagsMask__C                     
00022a58  ti_sysbios_timers_rti_Timer_Module__id__C                            
00021219  ti_sysbios_timers_rti_Timer_Module__startupDone__F                   
00021219  ti_sysbios_timers_rti_Timer_Module__startupDone__S                   
0800d864  ti_sysbios_timers_rti_Timer_Module__state__V                         
0000ae91  ti_sysbios_timers_rti_Timer_Module_startup__E                        
0800d4b4  ti_sysbios_timers_rti_Timer_Object__table__V                         
00022a5a  ti_sysbios_timers_rti_Timer_continueOnSuspend__C                     
00012e01  ti_sysbios_timers_rti_Timer_getFreq__E                               
00021861  ti_sysbios_timers_rti_Timer_getMaxTicks__E                           
0001a401  ti_sysbios_timers_rti_Timer_initDevice__I                            
00022954  ti_sysbios_timers_rti_Timer_numTimerDevices__C                       
0001fd11  ti_sysbios_timers_rti_Timer_periodicStub__E                          
00022958  ti_sysbios_timers_rti_Timer_startupNeeded__C                         
00016261  ti_sysbios_timers_rti_Timer_startup__E                               
0001e991  ti_sysbios_timers_rti_Timer_stop__E                                  
0002295c  ti_sysbios_utils_Load_LS_cpuLoad__C                                  
00022960  ti_sysbios_utils_Load_LS_taskLoad__C                                 
0800d984  ti_sysbios_utils_Load_Module_State_0_runningTask__A                  
0800d720  ti_sysbios_utils_Load_Module_State_0_taskEnv__A                      
0800d988  ti_sysbios_utils_Load_Module_State_0_taskStartTime__A                
00022964  ti_sysbios_utils_Load_Module_State_taskList__O                       
00022968  ti_sysbios_utils_Load_Module__diagsEnabled__C                        
0002296c  ti_sysbios_utils_Load_Module__diagsIncluded__C                       
00022970  ti_sysbios_utils_Load_Module__diagsMask__C                           
00022a5c  ti_sysbios_utils_Load_Module__id__C                                  
00022a5e  ti_sysbios_utils_Load_Module__loggerDefined__C                       
00022974  ti_sysbios_utils_Load_Module__loggerFxn1__C                          
00022978  ti_sysbios_utils_Load_Module__loggerFxn4__C                          
0002297c  ti_sysbios_utils_Load_Module__loggerObj__C                           
0800d090  ti_sysbios_utils_Load_Module__state__V                               
00022a60  ti_sysbios_utils_Load_autoAddTasks__C                                
00021751  ti_sysbios_utils_Load_getCPULoad__E                                  
000151f1  ti_sysbios_utils_Load_idleFxn__E                                     
0001c3d1  ti_sysbios_utils_Load_logCPULoad__I                                  
00014ea1  ti_sysbios_utils_Load_logLoads__I                                    
00022980  ti_sysbios_utils_Load_postUpdate__C                                  
000172c1  ti_sysbios_utils_Load_startup__E                                     
00013eb1  ti_sysbios_utils_Load_taskCreateHook__E                              
00018a41  ti_sysbios_utils_Load_taskDeleteHook__E                              
00021761  ti_sysbios_utils_Load_taskRegHook__E                                 
0001dd91  ti_sysbios_utils_Load_taskSwitchHook__E                              
0001ca41  ti_sysbios_utils_Load_updateCurrentThreadTime__E                     
00022a62  ti_sysbios_utils_Load_updateInIdle__C                                
00016ea1  ti_sysbios_utils_Load_updateLoads__E                                 
00011241  ti_sysbios_utils_Load_updateThreadContexts__E                        
00016ea1  ti_sysbios_utils_Load_update__E                                      
00022984  ti_sysbios_utils_Load_windowInMs__C                                  
0001fd3d  unlink                                                               
0001e9d1  vsnprintf                                                            
00021533  wcslen                                                               
000200c9  write                                                                
00022988  xdc_runtime_Assert_E_assertFailed__C                                 
0001c691  xdc_runtime_Assert_raise__I                                          
0002298c  xdc_runtime_Core_A_initializedParams__C                              
00022990  xdc_runtime_Core_Module__diagsEnabled__C                             
00022994  xdc_runtime_Core_Module__diagsIncluded__C                            
00022998  xdc_runtime_Core_Module__diagsMask__C                                
00022a64  xdc_runtime_Core_Module__id__C                                       
0001d4e1  xdc_runtime_Core_assignLabel__I                                      
0001de71  xdc_runtime_Core_assignParams__I                                     
000123c1  xdc_runtime_Core_constructObject__I                                  
00010761  xdc_runtime_Core_createObject__I                                     
0001a8f1  xdc_runtime_Core_deleteObject__I                                     
0002299c  xdc_runtime_Error_E_memory__C                                        
0800d6e0  xdc_runtime_Error_IgnoreBlock                                        
000229a0  xdc_runtime_Error_Module__diagsEnabled__C                            
000229a4  xdc_runtime_Error_Module__diagsIncluded__C                           
000229a8  xdc_runtime_Error_Module__diagsMask__C                               
00022a66  xdc_runtime_Error_Module__loggerDefined__C                           
000229ac  xdc_runtime_Error_Module__loggerFxn8__C                              
000229b0  xdc_runtime_Error_Module__loggerObj__C                               
0800d990  xdc_runtime_Error_Module__state__V                                   
00021231  xdc_runtime_Error_init__E                                            
00022a68  xdc_runtime_Error_maxDepth__C                                        
0000db51  xdc_runtime_Error_policyDefault__E                                   
000229b4  xdc_runtime_Error_policyFxn__C                                       
000229b8  xdc_runtime_Error_policy__C                                          
0001b561  xdc_runtime_Error_print__E                                           
000229bc  xdc_runtime_Error_raiseHook__C                                       
000229c0  xdc_runtime_IFilterLogger_Interface__BASE__C                         
000229c4  xdc_runtime_IGateProvider_Interface__BASE__C                         
000229c8  xdc_runtime_IHeap_Interface__BASE__C                                 
000229cc  xdc_runtime_ILogger_Interface__BASE__C                               
000229d0  xdc_runtime_IModule_Interface__BASE__C                               
000229d4  xdc_runtime_Log_L_error__C                                           
000229d8  xdc_runtime_LoggerBuf_E_badLevel__C                                  
00021249  xdc_runtime_LoggerBuf_Handle__label__S                               
08008000  xdc_runtime_LoggerBuf_Instance_State_0_entryArr__A                   
00020d81  xdc_runtime_LoggerBuf_Instance_finalize__E                           
000152c1  xdc_runtime_LoggerBuf_Instance_init__E                               
0002117d  xdc_runtime_LoggerBuf_Module_GateProxy_Handle__label__S              
0001f08d  xdc_runtime_LoggerBuf_Module_GateProxy_enter__E                      
0001fa9d  xdc_runtime_LoggerBuf_Module_GateProxy_leave__E                      
00021831  xdc_runtime_LoggerBuf_Module_GateProxy_query__E                      
00022338  xdc_runtime_LoggerBuf_Module__FXNS__C                                
000229dc  xdc_runtime_LoggerBuf_Module__gateObj__C                             
00022a6a  xdc_runtime_LoggerBuf_Module__id__C                                  
0800d914  xdc_runtime_LoggerBuf_Module__root__V                                
0800d934  xdc_runtime_LoggerBuf_Module__state__V                               
0001e531  xdc_runtime_LoggerBuf_Module_startup__E                              
00022658  xdc_runtime_LoggerBuf_Object__DESC__C                                
0002245c  xdc_runtime_LoggerBuf_Object__PARAMS__C                              
000229e0  xdc_runtime_LoggerBuf_Object__count__C                               
0001e109  xdc_runtime_LoggerBuf_Object__create__S                              
000209f1  xdc_runtime_LoggerBuf_Object__delete__S                              
00021485  xdc_runtime_LoggerBuf_Object__get__S                                 
0800d678  xdc_runtime_LoggerBuf_Object__table__V                               
000217d5  xdc_runtime_LoggerBuf_TimestampProxy_get32__E                        
0001f621  xdc_runtime_LoggerBuf_TimestampProxy_get64__E                        
000215f1  xdc_runtime_LoggerBuf_TimestampProxy_getFreq__E                      
000217a1  xdc_runtime_LoggerBuf_disable__E                                     
000217b1  xdc_runtime_LoggerBuf_enable__E                                      
00022a6c  xdc_runtime_LoggerBuf_filterByLevel__C                               
00019531  xdc_runtime_LoggerBuf_getFilterLevel__E                              
00016a71  xdc_runtime_LoggerBuf_setFilterLevel__E                              
000229e4  xdc_runtime_LoggerBuf_statusLogger__C                                
000216d1  xdc_runtime_LoggerBuf_write0__E                                      
00021551  xdc_runtime_LoggerBuf_write1__E                                      
00021571  xdc_runtime_LoggerBuf_write2__E                                      
000116e1  xdc_runtime_LoggerBuf_write4__E                                      
0000e641  xdc_runtime_LoggerBuf_write8__E                                      
0002117d  xdc_runtime_Main_Module_GateProxy_Handle__label__S                   
00021831  xdc_runtime_Main_Module_GateProxy_query__E                           
000229e8  xdc_runtime_Main_Module__diagsEnabled__C                             
000229ec  xdc_runtime_Main_Module__diagsIncluded__C                            
000229f0  xdc_runtime_Main_Module__diagsMask__C                                
00022a6e  xdc_runtime_Main_Module__id__C                                       
00022a70  xdc_runtime_Main_Module__loggerDefined__C                            
000229f4  xdc_runtime_Main_Module__loggerFxn1__C                               
000229f8  xdc_runtime_Main_Module__loggerFxn2__C                               
000229fc  xdc_runtime_Main_Module__loggerFxn4__C                               
00022a00  xdc_runtime_Main_Module__loggerObj__C                                
0800d992  xdc_runtime_Main_Module__root__V                                     
000211ad  xdc_runtime_Memory_HeapProxy_Handle__label__S                        
000215e5  xdc_runtime_Memory_HeapProxy_alloc__E                                
0002178d  xdc_runtime_Memory_HeapProxy_free__E                                 
00021797  xdc_runtime_Memory_HeapProxy_getStats__E                             
00022a72  xdc_runtime_Memory_Module__id__C                                     
0800d98c  xdc_runtime_Memory_Module__state__V                                  
00019a31  xdc_runtime_Memory_alloc__E                                          
00022a04  xdc_runtime_Memory_defaultHeapInstance__C                            
000216e1  xdc_runtime_Memory_free__E                                           
000216f1  xdc_runtime_Memory_getStats__E                                       
0800d91c  xdc_runtime_Registry_Module__state__V                                
0800d924  xdc_runtime_Startup_Module__state__V                                 
00000001  xdc_runtime_Startup__EXECFXN__C                                      
00000001  xdc_runtime_Startup__RESETFXN__C                                     
00022a08  xdc_runtime_Startup_execImpl__C                                      
0001c441  xdc_runtime_Startup_exec__E                                          
00021583  xdc_runtime_Startup_exec__I                                          
00022790  xdc_runtime_Startup_firstFxns__A                                     
00022798  xdc_runtime_Startup_firstFxns__C                                     
000227a0  xdc_runtime_Startup_lastFxns__C                                      
00022a0c  xdc_runtime_Startup_maxPasses__C                                     
000168ef  xdc_runtime_Startup_reset__I                                         
00021771  xdc_runtime_Startup_rtsDone__E                                       
000226d8  xdc_runtime_Startup_sfxnRts__A                                       
00022a10  xdc_runtime_Startup_sfxnRts__C                                       
000223dc  xdc_runtime_Startup_sfxnTab__A                                       
00022a14  xdc_runtime_Startup_sfxnTab__C                                       
00010c51  xdc_runtime_Startup_startMods__I                                     
000200f1  xdc_runtime_SysStd_abort__E                                          
00021781  xdc_runtime_SysStd_exit__E                                           
00021871  xdc_runtime_SysStd_putch__E                                          
00021881  xdc_runtime_SysStd_ready__E                                          
0002117d  xdc_runtime_System_Module_GateProxy_Handle__label__S                 
0001fd0d  xdc_runtime_System_Module_GateProxy_enter__E                         
00020cfd  xdc_runtime_System_Module_GateProxy_leave__E                         
00021831  xdc_runtime_System_Module_GateProxy_query__E                         
0800d700  xdc_runtime_System_Module_State_0_atexitHandlers__A                  
00022a18  xdc_runtime_System_Module__gateObj__C                                
0800d92c  xdc_runtime_System_Module__state__V                                  
00021821  xdc_runtime_System_Module_startup__E                                 
000200f1  xdc_runtime_System_SupportProxy_abort__E                             
00021781  xdc_runtime_System_SupportProxy_exit__E                              
00021871  xdc_runtime_System_SupportProxy_putch__E                             
00021881  xdc_runtime_System_SupportProxy_ready__E                             
00022a1c  xdc_runtime_System_abortFxn__C                                       
0001873d  xdc_runtime_System_abortStd__E                                       
00020eef  xdc_runtime_System_aprintf__E                                        
00020121  xdc_runtime_System_aprintf_va__F                                     
0001e581  xdc_runtime_System_atexit__E                                         
00004571  xdc_runtime_System_doPrint__I                                        
00022a20  xdc_runtime_System_exitFxn__C                                        
0001e3fd  xdc_runtime_System_exitStd__E                                        
0001d9a1  xdc_runtime_System_exit__E                                           
00022a24  xdc_runtime_System_extendFxn__C                                      
00022a28  xdc_runtime_System_maxAtexitHandlers__C                              
000139e9  xdc_runtime_System_printfExtend__I                                   
00020f09  xdc_runtime_System_printf__E                                         
000203b1  xdc_runtime_System_printf_va__F                                      
00022a74  xdc_runtime_Text_charCnt__C                                          
00021fad  xdc_runtime_Text_charTab__A                                          
00022a2c  xdc_runtime_Text_charTab__C                                          
00022a76  xdc_runtime_Text_isLoaded__C                                         
00022a30  xdc_runtime_Text_nameEmpty__C                                        
00022a34  xdc_runtime_Text_nameStatic__C                                       
00022a38  xdc_runtime_Text_nameUnknown__C                                      
0001fa11  xdc_runtime_Text_printVisFxn__I                                      
0001c6f1  xdc_runtime_Text_putLab__E                                           
00017a01  xdc_runtime_Text_putMod__E                                           
00017e81  xdc_runtime_Text_putSite__E                                          
00022a78  xdc_runtime_Text_registryModsLastId__C                               
00022a7a  xdc_runtime_Text_unnamedModsLastId__C                                
00022a3c  xdc_runtime_Text_visitRopeFxn__C                                     
0001d999  xdc_runtime_Text_visitRope__I                                        
0001dec1  xdc_runtime_Text_xprintf__I                                          
000217d5  xdc_runtime_Timestamp_SupportProxy_get32__E                          
0001f621  xdc_runtime_Timestamp_SupportProxy_get64__E                          
000215f1  xdc_runtime_Timestamp_SupportProxy_getFreq__E                        
000217d5  xdc_runtime_Timestamp_get32__E                                       
0001f621  xdc_runtime_Timestamp_get64__E                                       
000215f1  xdc_runtime_Timestamp_getFreq__E                                     


GLOBAL SYMBOLS: SORTED BY Symbol Address 

address   name                                                                 
-------   ----                                                                 
00000000  __ASM__                                                              
00000000  ti_sysbios_family_arm_v7r_vim_Hwi_vectors                            
00000001  xdc_runtime_Startup__EXECFXN__C                                      
00000001  xdc_runtime_Startup__RESETFXN__C                                     
00000062  __ISA__                                                              
00000074  __PLAT__                                                             
00000098  __TARG__                                                             
000000bf  __TRDR__                                                             
00000101  __TI_scanfi                                                          
00000800  __STACK_SIZE                                                         
00000c2d  __TI_printfi                                                         
00001673  ADCBUF_MMWave_init                                                   
00002011  MmwDemo_CLIInit                                                      
0000271f  HWA_init                                                             
00002e09  HWA_configParamSet                                                   
00003461  __kernel_rem_pio2                                                    
00003a65  MmwDemo_openSensor                                                   
00004005  DPU_RangeProcHWA_process                                             
00004569  HwiP_disable                                                         
00004571  xdc_runtime_System_doPrint__I                                        
00004a53  QSPIFlash_init                                                       
00004f29  ADCBUF_MMWave_control                                                
000053d1  DPU_RangeProcHWA_config                                              
00006457  QSPI_init                                                            
00006459  cos                                                                  
00006459  cosl                                                                 
0000684d  strtod                                                               
0000684d  strtold                                                              
0000734d  HwiP_disableInterrupt                                                
00007351  ti_sysbios_knl_Semaphore_pend__E                                     
000079a5  SOC_deviceInit                                                       
00007fbd  CBUFF_createSession                                                  
000082b5  EDMA3ChannelToParamMap                                               
000082c1  ti_sysbios_knl_Task_Instance_finalize__E                             
00008591  HWA_configCommon                                                     
00008854  __aeabi_uldivmod                                                     
00008b09  MMWave_decodeErrorLevel                                              
00008b11  ti_sysbios_heaps_HeapMem_freeUnprotected__E                          
00008db5  MMWave_deviceExecuteFxn                                              
00009039  HSIHeader_createHeader                                               
000092c1  ti_sysbios_family_arm_exc_Exception_excDumpContext__I                
000097b9  QSPIFlash_open                                                       
00009a25  CBUFF_init                                                           
00009c89  Mailbox_open                                                         
0000a5c5  MmwDemo_LVDSStreamHwConfig                                           
0000a801  ti_sysbios_heaps_HeapMem_allocUnprotected__E                         
0000aa39  CBUFF_openLVDS                                                       
0000ae91  ti_sysbios_timers_rti_Timer_Module_startup__E                        
0000b6e3  SOC_microDelay                                                       
0000b6f1  ti_sysbios_knl_Task_sleep__E                                         
0000bafd  CRC_open                                                             
0000bcfd  MmwDemo_stopSensor                                                   
0000c0f5  EDMAsetRegion                                                        
0000c101  ti_sysbios_knl_Task_Instance_init__E                                 
0000c2f9  DMA_setChannelParams                                                 
0000c4e9  strtoll                                                              
0000c6cd  CBUFF_configEDMA                                                     
0000c8a1  ti_sysbios_family_arm_v7r_vim_Hwi_dispatchIRQC__I                    
0000ca6d  CBUFF_initLVDS                                                       
0000cc35  rlDriverRxHdrRead                                                    
0000cdfd  EDMA_open                                                            
0000cfbd  MmwDemo_startSensor                                                  
0000d16d  rlDriverMsgRead                                                      
0000d31d  MmwDemo_bpmConfig                                                    
0000d4c5  CBUFF_activateSession                                                
0000db51  xdc_runtime_Error_policyDefault__E                                   
0000dced  MmwDemo_transferLVDSUserData                                         
0000de85  MMWave_openLink                                                      
0000e019  rlDriverCmdInvoke                                                    
0000e1a9  EDMA_configChannel                                                   
0000e331  HWA_open                                                             
0000e641  xdc_runtime_LoggerBuf_write8__E                                      
0000e7c5  DPM_init                                                             
0000e945  DPM_msgRecv                                                          
0000ec41  main                                                                 
0000edbd  GPIO_setConfig                                                       
0000ef2d  HwiP_enableInterrupt                                                 
0000ef31  ti_sysbios_family_arm_exc_Exception_excHandler__I                    
0000f0a1  ti_sysbios_knl_Semaphore_post__E                                     
0000f20d  MmwDemo_LVDSStreamInit                                               
0000f371  MmwDemo_LVDSStreamSwConfig                                           
0000f4d5  strtoull                                                             
0000f639  QSPI_open                                                            
0000f799  MemoryP_getStats                                                     
0000f7a1  ti_sysbios_family_arm_v7r_vim_Hwi_reconfig__E                        
0000fa61  ti_sysbios_knl_Task_postInit__I                                      
0001023d  HSIHeader_init                                                       
00010385  rlDriverCmdSendRetry                                                 
00010613  SemaphoreP_delete                                                    
00010621  ti_sysbios_heaps_HeapMem_Instance_init__E                            
00010761  xdc_runtime_Core_createObject__I                                     
000108a1  MmwDemo_LVDSStreamDeleteHwSession                                    
000109dd  MMWave_listGetHead                                                   
000109e1  ti_sysbios_knl_Clock_workFunc__E                                     
00010b1d  ADCBUF_MMWave_open                                                   
00010c51  xdc_runtime_Startup_startMods__I                                     
00010d85  MmwDemo_LVDSStreamDeleteSwSession                                    
00010eb5  strtol                                                               
00011111  mathUtils_genWindow                                                  
00011239  SemaphoreP_Params_init                                               
00011241  ti_sysbios_utils_Load_updateThreadContexts__E                        
000115b1  EDMA_init                                                            
000116e1  xdc_runtime_LoggerBuf_write4__E                                      
0001191d  MMWave_listGetNext                                                   
00011921  ti_sysbios_family_arm_v7r_vim_Hwi_Instance_init__E                   
00011a39  EDMA_configErrorMonitoring                                           
00011d71  strtoul                                                              
00011e81  DPEDMA_configSyncAB                                                  
000121a5  MMWave_deviceInitFxn                                                 
000122b1  ti_sysbios_knl_Task_schedule__I                                      
000123c1  xdc_runtime_Core_constructObject__I                                  
000124cd  DMA_disableInterrupt                                                 
000125d5  Mailbox_write                                                        
000127e5  CBUFF_deinit                                                         
000128e9  DPEDMA_configSyncA_singleFrame                                       
000129ed  MMWave_startLink                                                     
00012e01  ti_sysbios_timers_rti_Timer_getFreq__E                               
00013005  DMA_clearChannelInterruptFlag                                        
00013105  rlDriverInit                                                         
00013205  CBUFF_deleteSession                                                  
00013301  CRC_computeSignature                                                 
000135f5  MMWave_osalMutexUnlock                                               
00013601  ti_sysbios_knl_Task_exit__E                                          
000137f7  _nop                                                                 
000137f9  MmwDemo_configLVDSHwData                                             
000138f1  rlDriverRdVerifyMsg                                                  
000139e9  xdc_runtime_System_printfExtend__I                                   
00013bd5  ldexp                                                                
00013bd5  ldexpl                                                               
00013bd5  scalbn                                                               
00013bd5  scalbnl                                                              
00013cc5  MMWave_osalSemSignal                                                 
00013cd1  ti_sysbios_family_arm_v7r_vim_Hwi_Module_startup__E                  
00013dc1  ti_sysbios_knl_Task_startCore__E                                     
00013eb1  ti_sysbios_utils_Load_taskCreateHook__E                              
00014091  ti_sysbios_heaps_HeapBuf_Module_startup__E                           
0001417d  DPEDMAHWA_configTwoHotSignature                                      
00014267  __aeabi_idiv0                                                        
00014267  __aeabi_ldiv0                                                        
00014269  rlRfCalibDataStore                                                   
00014351  rlRfPhShiftCalibDataStore                                            
0001451d  rlRfPhShiftCalibDataRestore                                          
000146e3  ti_sysbios_BIOS_nullFunc__I                                          
000146e5  CLI_open                                                             
000147c5  DMA_enableInterrupt                                                  
000148a5  floor                                                                
000148a5  floorl                                                               
00014985  MMWave_init                                                          
00014a61  rlDriverMsgCmdReply                                                  
00014b3d  setvbuf                                                              
00014c19  Mailbox_read                                                         
00014dc1  rlSetMultiBpmChirpConfig                                             
00014e95  UART_Params_init                                                     
00014ea1  ti_sysbios_utils_Load_logLoads__I                                    
00014f75  DPU_RangeProcHWA_control                                             
00015045  SOC_controlSecureFirewall                                            
00015114  ti_sysbios_family_arm_exc_Exception_excHandlerAsm__I                 
0001517c  ti_sysbios_family_arm_exc_Exception_excHandlerDataAsm__I             
000151e5  UartSci_isDMAEnabled                                                 
000151f1  ti_sysbios_utils_Load_idleFxn__E                                     
000152c1  xdc_runtime_LoggerBuf_Instance_init__E                               
00015391  HWA_enableParamSetInterrupt                                          
0001545d  MmwDemo_configSensor                                                 
00015529  rlRfCalibDataRestore                                                 
000155f5  rlSetChirpConfig                                                     
000156c1  ti_sysbios_knl_Task_checkStacks__E                                   
0001578d  MMWave_addChirp                                                      
00015855  MMWave_configBPM                                                     
0001591d  MMWave_flushCfg                                                      
000159e5  MMWave_getChirpHandle                                                
00015aad  SOC_ungateClock                                                      
00015b75  rlSetFrameConfig                                                     
00015c3d  CBUFF_setupNonInterleaved_CP_ADC_CQ                                  
00015d01  DPM_deinit                                                           
00015dc5  DPM_ioctl                                                            
00015e89  __aeabi_errno_addr                                                   
00015e91  ti_sysbios_family_arm_v7a_Pmu_configureCounter__E                    
00015f55  DPU_RangeProcHWA_init                                                
000160d5  MmwDemo_isAllCfgInPendingState                                       
00016195  rlDriverMsgWrite                                                     
00016255  _register_lock                                                       
00016261  ti_sysbios_knl_Clock_TimerProxy_startup__E                           
00016261  ti_sysbios_timers_rti_Timer_startup__E                               
000163dd  GPIO_write                                                           
00016555  MmwDemo_LVDSStream_EDMAInit                                          
000166c9  CBUFF_setupTransfer                                                  
00016781  DMA_getChannelInterruptFlag                                          
00016839  SOC_MPUEnable                                                        
00016857  SOC_MPUDisable                                                       
00016875  SOC_MPUEnableBackgroundRegion                                        
0001688b  SOC_MPUDisableBackgroundRegion                                       
000168a1  SOC_MPUGetNumberOfRegions                                            
000168ab  SOC_MPUAreRegionsSeparate                                            
000168b3  SOC_MPUSetRegion                                                     
000168b9  SOC_MPUGetRegion                                                     
000168bf  SOC_MPUSetRegionBaseAddress                                          
000168c5  SOC_MPUGetRegionBaseAddress                                          
000168cb  SOC_MPUSetRegionTypeAndPermission                                    
000168d5  SOC_MPUGetRegionType                                                 
000168df  SOC_MPUGetRegionPermission                                           
000168e9  SOC_MPUSetRegionSizeRegister                                         
000168ef  xdc_runtime_Startup_reset__I                                         
000168f1  __kernel_cos                                                         
000169a5  _register_unlock                                                     
000169b1  ti_sysbios_gates_GateMutex_enter__E                                  
00016a64  ti_sysbios_family_arm_IntrinsicsSupport_maxbitA__I                   
00016a64  ti_sysbios_family_arm_IntrinsicsSupport_maxbit__E                    
00016a64  ti_sysbios_knl_Intrinsics_SupportProxy_maxbit__E                     
00016a64  ti_sysbios_knl_Intrinsics_maxbit__E                                  
00016a71  xdc_runtime_LoggerBuf_setFilterLevel__E                              
00016b25  UartSci_openDMA                                                      
00016bd9  CBUFF_deactivateSession                                              
00016c89  MMWave_addProfile                                                    
00016d39  MmwDemo_isAllCfgInNonPendingState                                    
00016de9  rlSetProfileConfig                                                   
00016ea1  ti_sysbios_utils_Load_updateLoads__E                                 
00016ea1  ti_sysbios_utils_Load_update__E                                      
00016f51  MmwDemo_ADCBufConfig                                                 
000170b1  ESM_processInterrupt                                                 
00017211  ti_sysbios_knl_Task_Module_startup__E                                
000172c1  ti_sysbios_utils_Load_startup__E                                     
0001736d  ADCBUF_MMWave_getChanBufAddr                                         
00017415  CLI_MMWaveExtensionHelp                                              
000174bd  EDMA3Init                                                            
0001760d  MMWave_getBpmChirpHandle                                             
000176b5  Pinmux_Set_OverrideCtrl                                              
0001775d  SOC_deregisterSysIntListener                                         
00017805  __kernel_sin                                                         
000178ad  rlDriverWaitForResponse                                              
00017955  rlSetAdvFrameConfig                                                  
00017a01  xdc_runtime_Text_putMod__E                                           
00017aa9  DMA_assignChannel                                                    
00017b4d  ESM_init                                                             
00017bf1  MMWave_addBpmChirp                                                   
00017c95  MMWave_start                                                         
00017d39  QSPIFlash_mmapWrite                                                  
00017e81  xdc_runtime_Text_putSite__E                                          
00017f25  QSPIFlash_configMmapRead                                             
00018065  SOC_registerSysIntListener                                           
00018105  __TI_auto_init                                                       
000181a5  __TI_zero_init                                                       
000181b1  ti_sysbios_knl_Task_blockI__E                                        
00018251  MMWave_configLink                                                    
000182ed  MMWave_getProfileHandle                                              
0001855d  __aeabi_memcpy                                                       
0001855d  __aeabi_memcpy4                                                      
0001855d  __aeabi_memcpy8                                                      
0001855d  memcpy                                                               
000185f9  rlDriverConstructOutMsg                                              
00018601  ti_sysbios_family_arm_v7r_vim_Hwi_initIntController__I               
0001869d  MmwDemo_sleep                                                        
000186a1  ti_sysbios_family_arm_v7r_vim_Hwi_mapChannel__I                      
0001873d  C$$EXIT                                                              
0001873d  abort                                                                
0001873d  xdc_runtime_System_abortStd__E                                       
00018741  ti_sysbios_knl_Semaphore_Instance_init__E                            
00018879  MMWave_getChirpCfg                                                   
00018911  MmwDemo_RFParser_parseConfig                                         
000189a8  ti_sysbios_family_xxx_Hwi_switchAndRunFunc                           
000189f4  ti_sysbios_family_xxx_Hwi_switchAndRunDispatchC                      
00018a41  ti_sysbios_utils_Load_taskDeleteHook__E                              
00018b6f  HWA_configRam                                                        
00018c9b  CBUFF_setupNonInterleaved_ADC                                        
00018e59  SOC_gateClock                                                        
00018eed  rlDriverDeInit                                                       
00018f81  rlDriverMsgReadCmdCtx                                                
00019015  rlDriverProcRdMsg                                                    
000190a8  ti_sysbios_family_arm_v7r_vim_Hwi_dispatchIRQ__I                     
0001913d  GPIO_init                                                            
000191cd  Mailbox_close                                                        
0001925d  UartSci_initiateTxDMA                                                
0001937d  fputc                                                                
0001937d  putc                                                                 
0001940d  ti_sysbios_BIOS_RtsGateProxy_enter__E                                
00019411  ti_sysbios_family_arm_v7a_Pmu_startCounter__E                        
000194a1  ti_sysbios_knl_Task_unblockI__E                                      
00019531  xdc_runtime_LoggerBuf_getFilterLevel__E                              
0001964d  SOC_init                                                             
000196d9  SOC_translateAddress                                                 
00019765  UartSci_initiateRxDMA                                                
000197f1  rlDevicePowerOn                                                      
0001987d  rlDriverMsgReadSpawnCtx                                              
00019909  rlDriverGetHandle                                                    
00019911  ti_sysbios_family_arm_v7a_Pmu_getCount__E                            
0001999d  ti_sysbios_BIOS_RtsGateProxy_leave__E                                
000199a1  ti_sysbios_family_arm_v7r_vim_Hwi_Instance_finalize__E               
00019a2d  ti_sysbios_family_arm_TaskSupport_Module__startupDone__S             
00019a2d  ti_sysbios_knl_Task_SupportProxy_Module__startupDone__S              
00019a31  xdc_runtime_Memory_alloc__E                                          
00019b45  HWA_disableParamSetInterrupt                                         
00019bcd  MMWave_getProfileCfg                                                 
00019c55  CBUFF_closeEDMA                                                      
00019cdd  MMWave_deviceCfgAsyncEvent                                           
00019d61  MMWave_deviceEventFxn                                                
00019de5  MMWave_getNumBpmChirp                                                
00019e69  MMWave_open                                                          
0001a0f5  MMWave_getBpmChirpCfg                                                
0001a1f5  SOC_getDeviceRFFreqScaleFactor                                       
0001a2f5  fflush                                                               
0001a375  rlDriverExecuteGetApi                                                
0001a3f5  putchar                                                              
0001a401  ti_sysbios_timers_rti_Timer_initDevice__I                            
0001a481  HwiP_create                                                          
0001a501  CBUFF_initLVDSLinkListParams                                         
0001a581  DPM_pipeSend                                                         
0001a679  MMWave_deviceOpenFxn                                                 
0001a6f5  Mailbox_init                                                         
0001a868  ti_sysbios_family_arm_TaskSupport_buildTaskStack                     
0001a8e5  rlDriverGetPlatformId                                                
0001a8f1  xdc_runtime_Core_deleteObject__I                                     
0001aa63  __aeabi_memclr                                                       
0001aa63  __aeabi_memclr4                                                      
0001aa63  __aeabi_memclr8                                                      
0001aa65  __aeabi_memset                                                       
0001aa65  __aeabi_memset4                                                      
0001aa65  __aeabi_memset8                                                      
0001aa6b  memset                                                               
0001aadd  ADCBUF_MMWave_getCQBufAddr                                           
0001abcd  CBUFF_setVC                                                          
0001acbd  EDMA_configParamSet                                                  
0001ad35  MMWave_getNumChirps                                                  
0001adad  QSPIFlash_mmapRead                                                   
0001ae25  QSPIFlash_sectorErase                                                
0001ae9d  QSPI_cfgRead                                                         
0001af15  QSPI_memAccessCfg                                                    
0001b001  MMWave_config                                                        
0001b075  MMWave_deviceStartFxn                                                
0001b0e9  __TI_closefile                                                       
0001b15c  _c_int00                                                             
0001b1d1  frexp                                                                
0001b1d1  frexpl                                                               
0001b245  rlDriverAsyncEventHandler                                            
0001b32d  HSIHeader_deleteHeader                                               
0001b40d  MMWave_deviceCfgFxn                                                  
0001b4ed  mmwDemo_flashInit                                                    
0001b55d  ti_sysbios_family_arm_v7r_vim_Hwi_delete                             
0001b561  xdc_runtime_Error_print__E                                           
0001b5d1  DMA_disableChannel                                                   
0001b63d  DMA_enableChannel                                                    
0001b6a9  DPM_relayResult                                                      
0001b715  HOSTrename                                                           
0001b7ed  MMWave_stopLink                                                      
0001b99d  Pinmux_Set_FuncSel                                                   
0001ba75  QSPI_cfgWrite                                                        
0001bae1  __TI_decompress_lzss                                                 
0001bc21  HOSTlseek                                                            
0001bc89  MMWave_deviceStopFxn                                                 
0001bcf1  Mailbox_readFlush                                                    
0001bef9  rlDriverExecuteSetApi                                                
0001bf61  rlDriverHostIrqHandler                                               
0001bfc9  rlDevicePowerOff                                                     
0001c0f9  HWA_getDMAChanIndex                                                  
0001c15d  SemaphoreP_create                                                    
0001c1c1  __TI_wrt_ok                                                          
0001c225  fseek                                                                
0001c288  ti_sysbios_family_arm_exc_Exception_initCore0__I                     
0001c2ed  ti_sysbios_heaps_HeapMem_Module_GateProxy_enter__E                   
0001c2f1  ti_sysbios_family_arm_v7r_vim_Hwi_phantomIntHandler__I               
0001c354  ti_sysbios_family_arm_v7a_Pmu_configureCounterI__I                   
0001c361  ti_sysbios_knl_Clock_logTick__E                                      
0001c3c4  ti_sysbios_family_arm_v7a_Pmu_getCountI__E                           
0001c3d1  ti_sysbios_utils_Load_logCPULoad__I                                  
0001c435  ti_sysbios_knl_Queue_Object__get__S                                  
0001c441  xdc_runtime_Startup_exec__E                                          
0001c509  CLI_MMWaveExtensionHandler                                           
0001c569  DebugP_log2                                                          
0001c5c9  DebugP_log3                                                          
0001c628  ti_sysbios_family_arm_v7a_Pmu_getEnabled__E                          
0001c631  ti_sysbios_heaps_HeapMem_alloc__E                                    
0001c691  xdc_runtime_Assert_raise__I                                          
0001c6f1  xdc_runtime_Text_putLab__E                                           
0001c7b1  HOSTopen                                                             
0001c80d  HOSTread                                                             
0001c8c5  MMWave_stop                                                          
0001c9d9  SOC_enableLVDS                                                       
0001ca35  ADCBuf_control                                                       
0001ca41  ti_sysbios_utils_Load_updateCurrentThreadTime__E                     
0001caf7  rlDriverCalChkSum                                                    
0001cb51  DPM_execute                                                          
0001cc01  DebugP_log0                                                          
0001cc59  DebugP_log1                                                          
0001ccb1  EDMA3EnableChInShadowReg                                             
0001cd09  ESM_highpriority_FIQ                                                 
0001cd61  HOSTwrite                                                            
0001cdb9  HWA_getDMAconfig                                                     
0001ce11  MMWave_execute                                                       
0001cfc9  QSPIFlash_configMmapWrite                                            
0001d021  UartSci_closeDMA                                                     
0001d079  close                                                                
0001d0d1  mmwDemo_flashRead                                                    
0001d181  CRC_getTransactionId                                                 
0001d1d5  DMA_freeChannel                                                      
0001d27d  MMWave_initLink                                                      
0001d2d1  MmwDemo_CfgUpdate                                                    
0001d325  MmwDemo_resetStaticCfgPendingState                                   
0001d379  QSPIFlash_writeEnable                                                
0001d3cd  __TI_ltoa                                                            
0001d421  ti_sysbios_family_arm_v7r_vim_Hwi_create                             
0001d475  ADCBuf_getChanBufAddr                                                
0001d481  ti_sysbios_heaps_HeapMem_getStats__E                                 
0001d4d5  CBUFF_deinitLVDS                                                     
0001d4e1  xdc_runtime_Core_assignLabel__I                                      
0001d535  DPEDMA_setup_shadow_link                                             
0001d5d9  CRC_getSignature                                                     
0001d629  DPM_synch                                                            
0001d679  EDMA3MapChToEvtQ                                                     
0001d6c9  MMWave_sync                                                          
0001d809  atoi                                                                 
0001d8a9  rlDeviceIdentifyCmdDir                                               
0001d8f9  rlDriverVerifyCRC                                                    
0001d948  __aeabi_uidiv                                                        
0001d948  __aeabi_uidivmod                                                     
0001d999  xdc_runtime_Text_visitRope__I                                        
0001d9a1  xdc_runtime_System_exit__E                                           
0001d9f1  CLI_write                                                            
0001da3d  EDMA_disableChannel                                                  
0001da89  EDMA_enableChannel                                                   
0001dad5  HWA_enableDoneInterrupt                                              
0001dc05  __TI_doflush                                                         
0001dc51  copy_in                                                              
0001dc9d  ti_sysbios_heaps_HeapMem_Module_GateProxy_leave__E                   
0001dca1  ti_sysbios_family_arm_v7r_vim_Hwi_getStackInfo__E                    
0001dca1  ti_sysbios_hal_Hwi_HwiProxy_getStackInfo__E                          
0001dca1  ti_sysbios_hal_Hwi_getStackInfo__E                                   
0001dced  ti_sysbios_knl_Task_create                                           
0001dd39  CycleprofilerP_getTimeStamp                                          
0001dd41  ti_sysbios_knl_Task_stat__E                                          
0001dd8d  ti_sysbios_knl_Clock_TimerProxy_getMaxTicks__E                       
0001dd91  ti_sysbios_utils_Load_taskSwitchHook__E                              
0001de71  xdc_runtime_Core_assignParams__I                                     
0001dec1  xdc_runtime_Text_xprintf__I                                          
0001df57  CBUFF_setup_USER                                                     
0001df9f  DPM_pipeRecv                                                         
0001e031  mmwDemo_flashWrite                                                   
0001e079  rlDeviceGetVersion                                                   
0001e0c1  rlDriverOsiInit                                                      
0001e109  xdc_runtime_LoggerBuf_Object__create__S                              
0001e199  ADCBUF_MMWave_close                                                  
0001e265  DPM_start                                                            
0001e2a9  DPM_stop                                                             
0001e2ed  HOSTclose                                                            
0001e331  HOSTunlink                                                           
0001e3b9  SOC_resetDMA                                                         
0001e3fd  exit                                                                 
0001e3fd  xdc_runtime_System_exitStd__E                                        
0001e441  getdevice                                                            
0001e491  ti_sysbios_family_arm_v7r_tms570_Core_Module_startup__E              
0001e4e1  ti_sysbios_knl_Task_allBlockedFunction__I                            
0001e525  MemoryP_ctrlFree                                                     
0001e531  xdc_runtime_LoggerBuf_Module_startup__E                              
0001e575  SemaphoreP_post                                                      
0001e575  SemaphoreP_postFromClock                                             
0001e575  SemaphoreP_postFromISR                                               
0001e581  xdc_runtime_System_atexit__E                                         
0001e5c5  CBUFF_closeLVDS                                                      
0001e649  HWA_reset                                                            
0001e68b  MMWave_executeLink                                                   
0001e6cd  rlGetSubBlock                                                        
0001e711  EDMA_linkParamSets                                                   
0001e751  HWA_getHWAMemInfo                                                    
0001e811  QSPIFlash_progQuadRead                                               
0001e8d1  rlDriverValidateHdr                                                  
0001e911  sprintf                                                              
0001e951  strtok                                                               
0001e991  ti_sysbios_timers_rti_Timer_stop__E                                  
0001e9d1  vsnprintf                                                            
0001ed75  HWA_enable                                                           
0001edb3  MMWave_decodeError                                                   
0001ee2f  mmwDemo_cfgAnalogMonitor                                             
0001eee5  EDMA_chainChannels                                                   
0001ef21  Mailbox_writeReset                                                   
0001ef5d  SOC_isSecureDevice                                                   
0001ef99  SOC_unhaltBSS                                                        
0001efd5  __TI_writemsg                                                        
0001f007  C$$IO$$                                                              
0001f010  ti_sysbios_family_arm_v7r_vim_Hwi_init__I                            
0001f04d  ti_sysbios_knl_Semaphore_delete                                      
0001f051  ti_sysbios_hal_Hwi_checkStack                                        
0001f08d  xdc_runtime_LoggerBuf_Module_GateProxy_enter__E                      
0001f091  ti_sysbios_heaps_HeapMem_init__I                                     
0001f0cd  HWA_setDMA2ACCManualTrig                                             
0001f109  HwiP_delete                                                          
0001f1b5  CLI_MMWaveExtensionInit                                              
0001f225  DPM_notifyExecute                                                    
0001f25d  EDMA3ClrMissEvt                                                      
0001f295  UART_init                                                            
0001f2cd  sscanf                                                               
0001f305  rlAppendSubBlock                                                     
0001f33b  strncpy                                                              
0001f371  ADCBuf_open                                                          
0001f3d9  HWA_disableDoneInterrupt                                             
0001f441  SOC_enableHWA                                                        
0001f475  SOC_hasDSPCore                                                       
0001f4a9  SOC_setMMWaveDSSLinkState                                            
0001f4dd  SOC_setMMWaveMSSLinkState                                            
0001f511  SOC_setMSSLinkState                                                  
0001f545  UART_open                                                            
0001f579  __TI_cleanup                                                         
0001f5ad  __TI_readmsg                                                         
0001f5e1  finddevice                                                           
0001f615  UART_close                                                           
0001f621  ti_sysbios_family_arm_a15_TimestampProvider_get64__E                 
0001f621  xdc_runtime_LoggerBuf_TimestampProxy_get64__E                        
0001f621  xdc_runtime_Timestamp_SupportProxy_get64__E                          
0001f621  xdc_runtime_Timestamp_get64__E                                       
0001f655  ti_sysbios_knl_Semaphore_create                                      
0001f753  __TI_decompress_none                                                 
0001f761  ti_sysbios_hal_Hwi_initStack                                         
0001f795  ADCBuf_init                                                          
0001f7f5  MMWave_listRemoveNode                                                
0001f825  SOC_getDevicePartNumber                                              
0001f885  rlSensorStart                                                        
0001f8b5  ti_sysbios_BIOS_startFunc__I                                         
0001f8e5  UART_read                                                            
0001f8f1  ti_sysbios_family_arm_TaskSupport_start__E                           
0001f8f1  ti_sysbios_knl_Task_SupportProxy_start__E                            
0001f921  ti_sysbios_gates_GateHwi_Object__create__S                           
0001f951  ti_sysbios_gates_GateMutex_Object__create__S                         
0001f981  ti_sysbios_heaps_HeapMem_Object__create__S                           
0001f9b1  ti_sysbios_heaps_HeapMem_free__E                                     
0001f9e1  ti_sysbios_knl_Semaphore_construct                                   
0001fa11  xdc_runtime_Text_printVisFxn__I                                      
0001fa6f  _DPC_Objdet_Assert                                                   
0001fa9d  xdc_runtime_LoggerBuf_Module_GateProxy_leave__E                      
0001faa1  ti_sysbios_knl_Semaphore_pendTimeout__I                              
0001facf  malloc                                                               
0001fafd  DPM_pipeInit                                                         
0001fbad  MMWave_osalMutexCreate                                               
0001fbd9  MMWave_osalSemCreate                                                 
0001fc05  SOC_waitBSSPowerUp                                                   
0001fc31  rlDeviceGetMssVersion                                                
0001fc5d  rlSensorStop                                                         
0001fc89  ti_sysbios_BIOS_atExitFunc__I                                        
0001fcb5  ti_sysbios_knl_Clock_doTick__I                                       
0001fce1  ti_sysbios_knl_Queue_construct                                       
0001fd0d  xdc_runtime_System_Module_GateProxy_enter__E                         
0001fd11  ti_sysbios_timers_rti_Timer_periodicStub__E                          
0001fd3d  remove                                                               
0001fd3d  unlink                                                               
0001fd93  DPM_pipeDeinit                                                       
0001fde7  MmwDemo_ADCBufOpen                                                   
0001fe11  SOC_SystemISR                                                        
0001fe3b  rlDeviceGetMmWaveLinkVersion                                         
0001fe65  strspn                                                               
0001ff31  DPM_msgInitHeader                                                    
0001ff59  DPU_RangeProcHWA_deinit                                              
0001ff81  Mailbox_Config_init                                                  
0001ffa9  QSPIFlash_getExtFlashAddr                                            
00020021  lseek                                                                
00020049  mmwDemo_flashEraseOneSector                                          
00020071  rlDriverConstructInMsg                                               
000200a1  ti_sysbios_knl_Idle_run__E                                           
000200c9  write                                                                
000200f1  xdc_runtime_SysStd_abort__E                                          
000200f1  xdc_runtime_System_SupportProxy_abort__E                             
00020119  EDMA3ClrCCErr                                                        
00020121  xdc_runtime_System_aprintf_va__F                                     
00020149  memccpy                                                              
0002016f  memcmp                                                               
00020195  mmwDemo_cfgRxSaturationMonitor                                       
000201bb  rlRfAnaMonConfig                                                     
000201e1  rlRfGetTemperatureReport                                             
00020207  rlRfInitCalibConfig                                                  
0002022d  rlRfRunTimeCalibConfig                                               
00020253  rlRfRxIfSatMonConfig                                                 
00020279  rlRfRxSigImgMonConfig                                                
0002029f  rlRfSetCalMonFreqLimitConfig                                         
000202c5  rlRfSetDeviceCfg                                                     
000202eb  rlRfSetLdoBypassConfig                                               
00020311  rlSetAdcOutConfig                                                    
00020337  rlSetBpmCommonConfig                                                 
0002035d  rlSetChannelConfig                                                   
00020383  rlSetContModeConfig                                                  
000203a9  EDMA3ErrIntrHighStatusGet                                            
000203b1  xdc_runtime_System_printf_va__F                                      
000203d9  _MmwDemo_debugAssert                                                 
00020425  EDMA3ClrEvt                                                          
00020449  EDMA3ClrIntr                                                         
0002046d  EDMA3DisableDmaEvt                                                   
00020491  EDMA3DisableEvtIntr                                                  
000204b5  EDMA3EnableDmaEvt                                                    
000204d9  EDMA3EnableEvtIntr                                                   
00020569  SOC_isDSSOperational                                                 
0002058d  SOC_isMMWaveDSSOperational                                           
000205b1  SOC_isMMWaveMSSOperational                                           
000205d5  rlDeviceSetHsiClk                                                    
000205f9  rlEnableContMode                                                     
0002061d  rlRfSetCalMonTimeUnitConfig                                          
00020641  rlSetLowPowerModeConfig                                              
00020665  ti_sysbios_BIOS_registerRTSLock__I                                   
00020689  ti_sysbios_BIOS_removeRTSLock__I                                     
000206ad  ti_sysbios_gates_GateMutex_Object__delete__S                         
000206d1  ti_sysbios_knl_Clock_Module_startup__E                               
000206f5  ti_sysbios_knl_Semaphore_Object__delete__S                           
0002073b  QSPIFlashGetStatus                                                   
0002075d  UartSci_disableRxDMA                                                 
0002077f  UartSci_enableRxDMA                                                  
000207a1  strcspn                                                              
000207c3  DPM_listCat                                                          
000207e5  EDMA3QdmaClrMissEvt                                                  
00020805  ESM_lowpriority_IRQ                                                  
00020845  MMWave_listCat                                                       
00020885  copysign                                                             
00020885  copysignl                                                            
000208a5  rlRfInit                                                             
000208c5  UART_write                                                           
000208d1  ti_sysbios_family_arm_TaskSupport_stackUsed__E                       
000208d1  ti_sysbios_knl_Task_SupportProxy_stackUsed__E                        
000208f1  ti_sysbios_family_arm_a15_TimestampProvider_autoRefreshFxn__I        
00020911  ti_sysbios_family_arm_v7a_Pmu_Module_startup__E                      
00020931  ti_sysbios_family_arm_v7r_vim_Hwi_Object__delete__S                  
00020951  ti_sysbios_family_arm_v7r_vim_Hwi_disableInterrupt__E                
00020951  ti_sysbios_hal_Hwi_HwiProxy_disableInterrupt__E                      
00020951  ti_sysbios_hal_Hwi_disableInterrupt__E                               
00020971  ti_sysbios_family_arm_v7r_vim_Hwi_enableInterrupt__E                 
00020971  ti_sysbios_hal_Hwi_HwiProxy_enableInterrupt__E                       
00020971  ti_sysbios_hal_Hwi_enableInterrupt__E                                
00020991  ti_sysbios_gates_GateHwi_Object__delete__S                           
000209b1  ti_sysbios_heaps_HeapMem_Object__delete__S                           
000209d1  ti_sysbios_knl_Semaphore_destruct                                    
000209f1  xdc_runtime_LoggerBuf_Object__delete__S                              
00020a4d  SOC_getOutAddr_LUTType                                               
00020a6b  mmwDemo_cfgRxSigImgMonitor                                           
00020a89  ti_sysbios_BIOS_errorRaiseHook__I                                    
00020bf7  DPM_listRemove                                                       
00020c13  MMWave_listRemove                                                    
00020c69  SOC_getInAddr_LUTType                                                
00020c84  ti_sysbios_family_arm_TaskSupport_glue                               
00020ca0  ti_sysbios_family_arm_TaskSupport_swap__E                            
00020ca0  ti_sysbios_knl_Task_SupportProxy_swap__E                             
00020cbd  ti_sysbios_BIOS_rtsLock__I                                           
00020cd9  EDMA3GetCCErrStatus                                                  
00020ce1  ti_sysbios_family_arm_v7r_vim_Hwi_clearInterrupt__E                  
00020ce1  ti_sysbios_hal_Hwi_HwiProxy_clearInterrupt__E                        
00020ce1  ti_sysbios_hal_Hwi_clearInterrupt__E                                 
00020cfd  xdc_runtime_System_Module_GateProxy_leave__E                         
00020d01  ti_sysbios_gates_GateMutex_Instance_init__E                          
00020d21  ti_sysbios_gates_GateMutex_leave__E                                  
00020d3d  ti_sysbios_knl_Queue_destruct                                        
00020d59  EDMA3GetErrIntrStatus                                                
00020d61  ti_sysbios_knl_Task_restoreHwi__E                                    
00020d81  xdc_runtime_LoggerBuf_Instance_finalize__E                           
00020d9d  CBUFF_finalizeLVDSLinkListParams                                     
00020db7  DPM_listAdd                                                          
00020e1f  EDMA3SetPaRAM                                                        
00020e39  MMWave_deviceSyncFxn                                                 
00020e53  MMWave_encodeError                                                   
00020e6d  MMWave_listAdd                                                       
00020ea1  free                                                                 
00020ebb  rlGetRfDieId                                                         
00020ed5  ti_sysbios_family_arm_a15_TimestampProvider_initCCNT__I              
00020eef  xdc_runtime_System_aprintf__E                                        
00020f09  xdc_runtime_System_printf__E                                         
00020f3d  CLI_getMMWaveExtensionOpenConfig                                     
00020f9d  EDMA3DisableQdmaEvt                                                  
00020fb5  EDMA3EnableQdmaEvt                                                   
00020fcd  MMWave_osalMutexLock                                                 
00020fe5  MMWave_osalSemWait                                                   
0002105d  _args_main                                                           
0002108d  rlDeviceGetRfVersion                                                 
000210a5  rlDriverCalCRC                                                       
000210bd  rlDriverFillPayload                                                  
000210d5  __aeabi_lmul                                                         
000210ed  strcmp                                                               
00021105  strrchr                                                              
0002111d  ti_sysbios_BIOS_rtsUnlock__I                                         
00021134  ti_sysbios_family_arm_v7a_Pmu_initCounters__I                        
0002114d  ti_sysbios_family_arm_v7r_vim_Hwi_Module__startupDone__F             
0002114d  ti_sysbios_family_arm_v7r_vim_Hwi_Module__startupDone__S             
0002114d  ti_sysbios_hal_Hwi_HwiProxy_Module__startupDone__S                   
00021165  ti_sysbios_family_arm_v7r_vim_Hwi_Params__init__S                    
00021165  ti_sysbios_hal_Hwi_HwiProxy_Params__init__S                          
0002117d  ti_sysbios_gates_GateHwi_Handle__label__S                            
0002117d  xdc_runtime_LoggerBuf_Module_GateProxy_Handle__label__S              
0002117d  xdc_runtime_Main_Module_GateProxy_Handle__label__S                   
0002117d  xdc_runtime_System_Module_GateProxy_Handle__label__S                 
00021195  ti_sysbios_BIOS_RtsGateProxy_Handle__label__S                        
00021195  ti_sysbios_gates_GateMutex_Handle__label__S                          
00021195  ti_sysbios_heaps_HeapMem_Module_GateProxy_Handle__label__S           
000211ad  ti_sysbios_heaps_HeapMem_Handle__label__S                            
000211ad  xdc_runtime_Memory_HeapProxy_Handle__label__S                        
000211c5  ti_sysbios_knl_Semaphore_Params__init__S                             
000211dd  ti_sysbios_knl_Task_Params__init__S                                  
000211f5  UART_writePolling                                                    
00021201  ti_sysbios_knl_Task_enter__I                                         
00021219  ti_sysbios_knl_Clock_TimerProxy_Module__startupDone__S               
00021219  ti_sysbios_timers_rti_Timer_Module__startupDone__F                   
00021219  ti_sysbios_timers_rti_Timer_Module__startupDone__S                   
00021231  xdc_runtime_Error_init__E                                            
00021249  xdc_runtime_LoggerBuf_Handle__label__S                               
00021261  CBUFF_shutdownTransfer                                               
0002128d  strchr                                                               
000212a3  strlen                                                               
000212b9  ti_sysbios_BIOS_exitFunc__I                                          
000212d1  ti_sysbios_knl_Idle_loop__E                                          
000212f1  ti_sysbios_knl_Task_sleepTimeout__I                                  
00021307  CycleprofilerP_init                                                  
0002131d  EDMA3GetIntrStatus                                                   
00021331  EDMA3IntrStatusHighGet                                               
00021345  EDMA3MapQdmaChToPaRAM                                                
00021359  HwiP_Params_init                                                     
00021395  MMWave_osalMutexDelete                                               
000213a9  MMWave_osalSemDelete                                                 
000213bd  MmwDemo_RFParser_getNumSubFrames                                     
000213e5  UartSci_disableTxDMA                                                 
000213f9  UartSci_enableTxDMA                                                  
0002140d  _DebugP_assert                                                       
00021421  mathUtils_ceilLog2                                                   
00021435  rlAppendDummy                                                        
00021449  rlDriverIsDeviceMapValid                                             
0002145d  strcpy                                                               
00021471  ti_sysbios_heaps_HeapMem_Object__get__S                              
00021485  xdc_runtime_LoggerBuf_Object__get__S                                 
00021499  CRC_initConfigParams                                                 
000214ab  EDMA3SetQdmaTrigWord                                                 
000214bd  MMWave_deviceGetDeviceInfo                                           
000214cf  MemoryP_ctrlAlloc                                                    
000214e1  SemaphoreP_pend                                                      
00021505  mathUtils_pow2roundup                                                
00021517  mathUtils_floorLog2                                                  
00021521  ti_sysbios_hal_Hwi_Module_startup__E                                 
00021533  wcslen                                                               
00021545  ti_sysbios_family_arm_v7r_tms570_Core_getId__E                       
00021545  ti_sysbios_hal_Core_CoreProxy_getId__E                               
00021551  xdc_runtime_LoggerBuf_write1__E                                      
00021563  ti_sysbios_family_arm_a15_TimestampProvider_getOverflowCCNT__I       
00021571  xdc_runtime_LoggerBuf_write2__E                                      
00021583  xdc_runtime_Startup_exec__I                                          
00021595  ADCBuf_Params_init                                                   
000215a5  CLI_getMMWaveExtensionConfig                                         
000215c5  QSPIFlashWriteCmd                                                    
000215d5  QSPI_Params_init                                                     
000215e5  xdc_runtime_Memory_HeapProxy_alloc__E                                
000215f1  ti_sysbios_BIOS_getCpuFreq__E                                        
000215f1  ti_sysbios_family_arm_a15_TimestampProvider_getFreq__E               
000215f1  xdc_runtime_LoggerBuf_TimestampProxy_getFreq__E                      
000215f1  xdc_runtime_Timestamp_SupportProxy_getFreq__E                        
000215f1  xdc_runtime_Timestamp_getFreq__E                                     
00021601  ti_sysbios_BIOS_setThreadType__E                                     
00021611  ti_sysbios_BIOS_start__E                                             
00021621  ti_sysbios_family_arm_a15_TimestampProvider_Module_startup__E        
00021630  ti_sysbios_family_arm_v7a_Pmu_disableInterruptI__E                   
00021640  ti_sysbios_family_arm_v7a_Pmu_enableInterruptI__E                    
00021650  ti_sysbios_family_arm_v7a_Pmu_getNumCounters__E                      
00021660  ti_sysbios_family_arm_v7a_Pmu_startCounterI__E                       
00021670  ti_sysbios_family_arm_v7a_Pmu_stopCounterI__E                        
00021681  ti_sysbios_gates_GateMutex_Instance_finalize__E                      
00021691  ti_sysbios_heaps_HeapBuf_Object__get__S                              
000216a1  ti_sysbios_knl_Semaphore_Instance_finalize__E                        
000216b1  ti_sysbios_knl_Task_Object__get__S                                   
000216c1  ti_sysbios_knl_Task_disable__E                                       
000216d1  xdc_runtime_LoggerBuf_write0__E                                      
000216e1  xdc_runtime_Memory_free__E                                           
000216f1  xdc_runtime_Memory_getStats__E                                       
00021701  ti_sysbios_knl_Queue_empty__E                                        
00021711  ti_sysbios_family_arm_TaskSupport_checkStack__E                      
00021711  ti_sysbios_knl_Task_SupportProxy_checkStack__E                       
00021721  ti_sysbios_family_arm_TaskSupport_getStackAlignment__E               
00021721  ti_sysbios_knl_Task_SupportProxy_getStackAlignment__E                
00021731  ti_sysbios_family_arm_exc_Exception_Module_startup__E                
00021741  ti_sysbios_family_arm_v7r_vim_Hwi_switchFromBootStack__E             
00021741  ti_sysbios_hal_Hwi_HwiProxy_switchFromBootStack__E                   
00021741  ti_sysbios_hal_Hwi_switchFromBootStack__E                            
00021751  ti_sysbios_utils_Load_getCPULoad__E                                  
00021761  ti_sysbios_utils_Load_taskRegHook__E                                 
00021771  xdc_runtime_Startup_rtsDone__E                                       
00021781  xdc_runtime_SysStd_exit__E                                           
00021781  xdc_runtime_System_SupportProxy_exit__E                              
0002178d  xdc_runtime_Memory_HeapProxy_free__E                                 
00021797  xdc_runtime_Memory_HeapProxy_getStats__E                             
000217a1  xdc_runtime_LoggerBuf_disable__E                                     
000217ab  EDMA3QdmaGetErrIntrStatus                                            
000217b1  xdc_runtime_LoggerBuf_enable__E                                      
000217bb  HwiP_restore                                                         
000217c1  ti_sysbios_gates_GateHwi_enter__E                                    
000217c9  rlGetSubBlockId                                                      
000217cf  rlGetSubBlockLen                                                     
000217d5  ti_sysbios_family_arm_a15_TimestampProvider_get32__E                 
000217d5  xdc_runtime_LoggerBuf_TimestampProxy_get32__E                        
000217d5  xdc_runtime_Timestamp_SupportProxy_get32__E                          
000217d5  xdc_runtime_Timestamp_get32__E                                       
000217e1  ti_sysbios_family_arm_v7r_vim_Hwi_startup__E                         
000217e1  ti_sysbios_hal_Hwi_HwiProxy_startup__E                               
000217e1  ti_sysbios_hal_Hwi_startup__E                                        
000217f1  ti_sysbios_gates_GateHwi_leave__E                                    
00021801  ti_sysbios_heaps_HeapMem_isBlocking__E                               
00021811  ti_sysbios_knl_Queue_Instance_init__E                                
00021821  xdc_runtime_System_Module_startup__E                                 
00021831  ti_sysbios_gates_GateHwi_query__E                                    
00021831  xdc_runtime_LoggerBuf_Module_GateProxy_query__E                      
00021831  xdc_runtime_Main_Module_GateProxy_query__E                           
00021831  xdc_runtime_System_Module_GateProxy_query__E                         
00021841  ti_sysbios_BIOS_RtsGateProxy_query__E                                
00021841  ti_sysbios_gates_GateMutex_query__E                                  
00021841  ti_sysbios_heaps_HeapMem_Module_GateProxy_query__E                   
00021851  ti_sysbios_knl_Task_startup__E                                       
00021861  ti_sysbios_timers_rti_Timer_getMaxTicks__E                           
00021871  xdc_runtime_SysStd_putch__E                                          
00021871  xdc_runtime_System_SupportProxy_putch__E                             
00021881  xdc_runtime_SysStd_ready__E                                          
00021881  xdc_runtime_System_SupportProxy_ready__E                             
00021891  ti_sysbios_BIOS_linkedWithIncorrectBootLibrary__E                    
000218a1  ti_sysbios_gates_GateHwi_Instance_init__E                            
00021d4e  ti_sysbios_family_arm_exc_Exception_Module__id__C                    
00021ea8  _ctypes_                                                             
00021fad  xdc_runtime_Text_charTab__A                                          
00021fae  ti_sysbios_family_arm_v7a_Pmu_Module__id__C                          
000221a0  ti_sysbios_family_arm_v7r_vim_Hwi_channelMap__A                      
00022278  ti_sysbios_knl_Task_Object__PARAMS__C                                
000222fc  UART_defaultParams                                                   
00022338  xdc_runtime_LoggerBuf_Module__FXNS__C                                
00022374  gEdmaHwAttrs                                                         
000223ac  ti_sysbios_family_arm_v7r_vim_Hwi_Object__PARAMS__C                  
000223dc  xdc_runtime_Startup_sfxnTab__A                                       
0002240c  gDPMMessageFxnTable                                                  
00022434  ti_sysbios_heaps_HeapMem_Module__FXNS__C                             
0002245c  xdc_runtime_LoggerBuf_Object__PARAMS__C                              
00022484  Mailbox_defaultCfg                                                   
000224a8  ti_sysbios_gates_GateHwi_Module__FXNS__C                             
000224cc  ti_sysbios_gates_GateMutex_Module__FXNS__C                           
000224f0  ti_sysbios_heaps_HeapMem_Object__PARAMS__C                           
00022514  ti_sysbios_knl_Semaphore_Object__PARAMS__C                           
00022578  ti_sysbios_family_arm_v7r_vim_Hwi_Object__DESC__C                    
00022598  ti_sysbios_gates_GateHwi_Object__DESC__C                             
000225b8  ti_sysbios_gates_GateMutex_Object__DESC__C                           
000225d8  ti_sysbios_heaps_HeapMem_Object__DESC__C                             
000225f8  ti_sysbios_knl_Queue_Object__DESC__C                                 
00022618  ti_sysbios_knl_Semaphore_Object__DESC__C                             
00022638  ti_sysbios_knl_Task_Object__DESC__C                                  
00022658  xdc_runtime_LoggerBuf_Object__DESC__C                                
00022678  ti_sysbios_gates_GateHwi_Object__PARAMS__C                           
00022690  ti_sysbios_gates_GateMutex_Object__PARAMS__C                         
000226a8  ti_sysbios_knl_Queue_Object__PARAMS__C                               
000226c0  ti_sysbios_knl_Task_hooks__A                                         
000226d8  xdc_runtime_Startup_sfxnRts__A                                       
000226f0  gADCBufFxnTable                                                      
00022714  ADCBuf_defaultParams                                                 
00022734  QSPI_defaultParams                                                   
00022744  gADCBufHwCfg                                                         
00022754  ti_sysbios_family_arm_v7r_vim_Hwi_intReqEnaSet__A                    
00022764  ti_sysbios_family_arm_v7r_vim_Hwi_wakeEnaSet__A                      
00022774  ti_sysbios_knl_Idle_funcList__A                                      
00022780  ti_sysbios_knl_Idle_funcList__C                                      
00022788  ti_sysbios_knl_Task_hooks__C                                         
00022790  xdc_runtime_Startup_firstFxns__A                                     
00022798  xdc_runtime_Startup_firstFxns__C                                     
000227a0  xdc_runtime_Startup_lastFxns__C                                      
000227a8  ti_sysbios_family_arm_TaskSupport_stackAlignment__C                  
000227ac  ti_sysbios_family_arm_exc_Exception_E_dataAbort__C                   
000227b0  ti_sysbios_family_arm_exc_Exception_E_prefetchAbort__C               
000227b4  ti_sysbios_family_arm_exc_Exception_E_swi__C                         
000227b8  ti_sysbios_family_arm_exc_Exception_E_undefinedInstruction__C        
000227bc  ti_sysbios_family_arm_exc_Exception_excHookFuncs__A                  
000227c0  ti_sysbios_family_arm_exc_Exception_excHookFuncs__C                  
000227c4  ti_sysbios_family_arm_v7a_Pmu_A_invalidCounterId__C                  
000227c8  ti_sysbios_family_arm_v7a_Pmu_Module__diagsEnabled__C                
000227cc  ti_sysbios_family_arm_v7a_Pmu_Module__diagsIncluded__C               
000227d0  ti_sysbios_family_arm_v7a_Pmu_Module__diagsMask__C                   
000227d4  ti_sysbios_family_arm_v7r_tms570_Core_E_mismatchedIds__C             
000227d8  ti_sysbios_family_arm_v7r_tms570_Core_id__C                          
000227dc  ti_sysbios_family_arm_v7r_vim_Hwi_A_badChannelId__C                  
000227e0  ti_sysbios_family_arm_v7r_vim_Hwi_E_alreadyDefined__C                
000227e4  ti_sysbios_family_arm_v7r_vim_Hwi_E_badIntNum__C                     
000227e8  ti_sysbios_family_arm_v7r_vim_Hwi_E_phantomInterrupt__C              
000227ec  ti_sysbios_family_arm_v7r_vim_Hwi_E_undefined__C                     
000227f0  ti_sysbios_family_arm_v7r_vim_Hwi_E_unsupportedMaskingOption__C      
000227f4  ti_sysbios_family_arm_v7r_vim_Hwi_LD_end__C                          
000227f8  ti_sysbios_family_arm_v7r_vim_Hwi_LM_begin__C                        
000227fc  ti_sysbios_family_arm_v7r_vim_Hwi_Module__diagsEnabled__C            
00022800  ti_sysbios_family_arm_v7r_vim_Hwi_Module__diagsIncluded__C           
00022804  ti_sysbios_family_arm_v7r_vim_Hwi_Module__diagsMask__C               
00022808  ti_sysbios_family_arm_v7r_vim_Hwi_Module__loggerFxn1__C              
0002280c  ti_sysbios_family_arm_v7r_vim_Hwi_Module__loggerFxn8__C              
00022810  ti_sysbios_family_arm_v7r_vim_Hwi_Module__loggerObj__C               
00022814  ti_sysbios_family_arm_v7r_vim_Hwi_NUM_INTERRUPTS__C                  
00022818  ti_sysbios_family_arm_v7r_vim_Hwi_channelMap__C                      
0002281c  ti_sysbios_family_arm_v7r_vim_Hwi_intReqEnaSet__C                    
00022820  ti_sysbios_family_arm_v7r_vim_Hwi_phantomFunc__C                     
00022824  ti_sysbios_family_arm_v7r_vim_Hwi_taskDisable__C                     
00022828  ti_sysbios_family_arm_v7r_vim_Hwi_taskRestoreHwi__C                  
0002282c  ti_sysbios_family_arm_v7r_vim_Hwi_wakeEnaSet__C                      
00022830  ti_sysbios_gates_GateMutex_A_badContext__C                           
00022834  ti_sysbios_gates_GateMutex_Instance_State_sem__O                     
00022838  ti_sysbios_gates_GateMutex_Module__diagsEnabled__C                   
0002283c  ti_sysbios_gates_GateMutex_Module__diagsIncluded__C                  
00022840  ti_sysbios_gates_GateMutex_Module__diagsMask__C                      
00022844  ti_sysbios_hal_Hwi_E_stackOverflow__C                                
00022848  ti_sysbios_heaps_HeapBuf_Instance_State_freeList__O                  
0002284c  ti_sysbios_heaps_HeapBuf_Object__count__C                            
00022850  ti_sysbios_heaps_HeapBuf_numConstructedHeaps__C                      
00022854  ti_sysbios_heaps_HeapMem_A_align__C                                  
00022858  ti_sysbios_heaps_HeapMem_A_heapSize__C                               
0002285c  ti_sysbios_heaps_HeapMem_A_invalidFree__C                            
00022860  ti_sysbios_heaps_HeapMem_A_zeroBlock__C                              
00022864  ti_sysbios_heaps_HeapMem_E_memory__C                                 
00022868  ti_sysbios_heaps_HeapMem_Module__diagsEnabled__C                     
0002286c  ti_sysbios_heaps_HeapMem_Module__diagsIncluded__C                    
00022870  ti_sysbios_heaps_HeapMem_Module__diagsMask__C                        
00022874  ti_sysbios_heaps_HeapMem_Module__gateObj__C                          
00022878  ti_sysbios_heaps_HeapMem_Object__count__C                            
0002287c  ti_sysbios_heaps_HeapMem_reqAlign__C                                 
00022880  ti_sysbios_knl_Clock_LM_begin__C                                     
00022884  ti_sysbios_knl_Clock_LM_tick__C                                      
00022888  ti_sysbios_knl_Clock_LW_delayed__C                                   
0002288c  ti_sysbios_knl_Clock_Module_State_clockQ__O                          
00022890  ti_sysbios_knl_Clock_Module__diagsEnabled__C                         
00022894  ti_sysbios_knl_Clock_Module__diagsIncluded__C                        
00022898  ti_sysbios_knl_Clock_Module__diagsMask__C                            
0002289c  ti_sysbios_knl_Clock_Module__loggerFxn1__C                           
000228a0  ti_sysbios_knl_Clock_Module__loggerFxn2__C                           
000228a4  ti_sysbios_knl_Clock_Module__loggerObj__C                            
000228a8  ti_sysbios_knl_Semaphore_A_badContext__C                             
000228ac  ti_sysbios_knl_Semaphore_A_noEvents__C                               
000228b0  ti_sysbios_knl_Semaphore_A_overflow__C                               
000228b4  ti_sysbios_knl_Semaphore_A_pendTaskDisabled__C                       
000228b8  ti_sysbios_knl_Semaphore_Instance_State_pendQ__O                     
000228bc  ti_sysbios_knl_Semaphore_LM_pend__C                                  
000228c0  ti_sysbios_knl_Semaphore_LM_post__C                                  
000228c4  ti_sysbios_knl_Semaphore_Module__diagsEnabled__C                     
000228c8  ti_sysbios_knl_Semaphore_Module__diagsIncluded__C                    
000228cc  ti_sysbios_knl_Semaphore_Module__diagsMask__C                        
000228d0  ti_sysbios_knl_Semaphore_Module__loggerFxn2__C                       
000228d4  ti_sysbios_knl_Semaphore_Module__loggerFxn4__C                       
000228d8  ti_sysbios_knl_Semaphore_Module__loggerObj__C                        
000228dc  ti_sysbios_knl_Task_A_badPriority__C                                 
000228e0  ti_sysbios_knl_Task_A_badTaskState__C                                
000228e4  ti_sysbios_knl_Task_A_badThreadType__C                               
000228e8  ti_sysbios_knl_Task_A_badTimeout__C                                  
000228ec  ti_sysbios_knl_Task_A_noPendElem__C                                  
000228f0  ti_sysbios_knl_Task_A_sleepTaskDisabled__C                           
000228f4  ti_sysbios_knl_Task_E_spOutOfBounds__C                               
000228f8  ti_sysbios_knl_Task_E_stackOverflow__C                               
000228fc  ti_sysbios_knl_Task_LD_block__C                                      
00022900  ti_sysbios_knl_Task_LD_exit__C                                       
00022904  ti_sysbios_knl_Task_LD_ready__C                                      
00022908  ti_sysbios_knl_Task_LM_sleep__C                                      
0002290c  ti_sysbios_knl_Task_LM_switch__C                                     
00022910  ti_sysbios_knl_Task_Module_State_inactiveQ__O                        
00022914  ti_sysbios_knl_Task_Module__diagsEnabled__C                          
00022918  ti_sysbios_knl_Task_Module__diagsIncluded__C                         
0002291c  ti_sysbios_knl_Task_Module__diagsMask__C                             
00022920  ti_sysbios_knl_Task_Module__loggerFxn2__C                            
00022924  ti_sysbios_knl_Task_Module__loggerFxn4__C                            
00022928  ti_sysbios_knl_Task_Module__loggerObj__C                             
0002292c  ti_sysbios_knl_Task_Object__count__C                                 
00022930  ti_sysbios_knl_Task_Object__heap__C                                  
00022934  ti_sysbios_knl_Task_allBlockedFunc__C                                
00022938  ti_sysbios_knl_Task_defaultStackHeap__C                              
0002293c  ti_sysbios_knl_Task_defaultStackSize__C                              
00022940  ti_sysbios_knl_Task_numConstructedTasks__C                           
00022944  ti_sysbios_timers_rti_Timer_E_cannotSupport__C                       
00022948  ti_sysbios_timers_rti_Timer_Module__diagsEnabled__C                  
0002294c  ti_sysbios_timers_rti_Timer_Module__diagsIncluded__C                 
00022950  ti_sysbios_timers_rti_Timer_Module__diagsMask__C                     
00022954  ti_sysbios_timers_rti_Timer_numTimerDevices__C                       
00022958  ti_sysbios_timers_rti_Timer_startupNeeded__C                         
0002295c  ti_sysbios_utils_Load_LS_cpuLoad__C                                  
00022960  ti_sysbios_utils_Load_LS_taskLoad__C                                 
00022964  ti_sysbios_utils_Load_Module_State_taskList__O                       
00022968  ti_sysbios_utils_Load_Module__diagsEnabled__C                        
0002296c  ti_sysbios_utils_Load_Module__diagsIncluded__C                       
00022970  ti_sysbios_utils_Load_Module__diagsMask__C                           
00022974  ti_sysbios_utils_Load_Module__loggerFxn1__C                          
00022978  ti_sysbios_utils_Load_Module__loggerFxn4__C                          
0002297c  ti_sysbios_utils_Load_Module__loggerObj__C                           
00022980  ti_sysbios_utils_Load_postUpdate__C                                  
00022984  ti_sysbios_utils_Load_windowInMs__C                                  
00022988  xdc_runtime_Assert_E_assertFailed__C                                 
0002298c  xdc_runtime_Core_A_initializedParams__C                              
00022990  xdc_runtime_Core_Module__diagsEnabled__C                             
00022994  xdc_runtime_Core_Module__diagsIncluded__C                            
00022998  xdc_runtime_Core_Module__diagsMask__C                                
0002299c  xdc_runtime_Error_E_memory__C                                        
000229a0  xdc_runtime_Error_Module__diagsEnabled__C                            
000229a4  xdc_runtime_Error_Module__diagsIncluded__C                           
000229a8  xdc_runtime_Error_Module__diagsMask__C                               
000229ac  xdc_runtime_Error_Module__loggerFxn8__C                              
000229b0  xdc_runtime_Error_Module__loggerObj__C                               
000229b4  xdc_runtime_Error_policyFxn__C                                       
000229b8  xdc_runtime_Error_policy__C                                          
000229bc  xdc_runtime_Error_raiseHook__C                                       
000229c0  xdc_runtime_IFilterLogger_Interface__BASE__C                         
000229c4  xdc_runtime_IGateProvider_Interface__BASE__C                         
000229c8  xdc_runtime_IHeap_Interface__BASE__C                                 
000229cc  xdc_runtime_ILogger_Interface__BASE__C                               
000229d0  xdc_runtime_IModule_Interface__BASE__C                               
000229d4  xdc_runtime_Log_L_error__C                                           
000229d8  xdc_runtime_LoggerBuf_E_badLevel__C                                  
000229dc  xdc_runtime_LoggerBuf_Module__gateObj__C                             
000229e0  xdc_runtime_LoggerBuf_Object__count__C                               
000229e4  xdc_runtime_LoggerBuf_statusLogger__C                                
000229e8  xdc_runtime_Main_Module__diagsEnabled__C                             
000229ec  xdc_runtime_Main_Module__diagsIncluded__C                            
000229f0  xdc_runtime_Main_Module__diagsMask__C                                
000229f4  xdc_runtime_Main_Module__loggerFxn1__C                               
000229f8  xdc_runtime_Main_Module__loggerFxn2__C                               
000229fc  xdc_runtime_Main_Module__loggerFxn4__C                               
00022a00  xdc_runtime_Main_Module__loggerObj__C                                
00022a04  xdc_runtime_Memory_defaultHeapInstance__C                            
00022a08  xdc_runtime_Startup_execImpl__C                                      
00022a0c  xdc_runtime_Startup_maxPasses__C                                     
00022a10  xdc_runtime_Startup_sfxnRts__C                                       
00022a14  xdc_runtime_Startup_sfxnTab__C                                       
00022a18  xdc_runtime_System_Module__gateObj__C                                
00022a1c  xdc_runtime_System_abortFxn__C                                       
00022a20  xdc_runtime_System_exitFxn__C                                        
00022a24  xdc_runtime_System_extendFxn__C                                      
00022a28  xdc_runtime_System_maxAtexitHandlers__C                              
00022a2c  xdc_runtime_Text_charTab__C                                          
00022a30  xdc_runtime_Text_nameEmpty__C                                        
00022a34  xdc_runtime_Text_nameStatic__C                                       
00022a38  xdc_runtime_Text_nameUnknown__C                                      
00022a3c  xdc_runtime_Text_visitRopeFxn__C                                     
00022a40  ti_sysbios_family_arm_v7r_tms570_Core_Module__id__C                  
00022a42  ti_sysbios_family_arm_v7r_vim_Hwi_Module__id__C                      
00022a44  ti_sysbios_family_arm_v7r_vim_Hwi_Module__loggerDefined__C           
00022a46  ti_sysbios_gates_GateMutex_Module__id__C                             
00022a48  ti_sysbios_hal_Hwi_Module__id__C                                     
00022a4a  ti_sysbios_heaps_HeapMem_Module__id__C                               
00022a4c  ti_sysbios_knl_Clock_Module__id__C                                   
00022a4e  ti_sysbios_knl_Clock_Module__loggerDefined__C                        
00022a50  ti_sysbios_knl_Semaphore_Module__id__C                               
00022a52  ti_sysbios_knl_Semaphore_Module__loggerDefined__C                    
00022a54  ti_sysbios_knl_Task_Module__id__C                                    
00022a56  ti_sysbios_knl_Task_Module__loggerDefined__C                         
00022a58  ti_sysbios_timers_rti_Timer_Module__id__C                            
00022a5a  ti_sysbios_timers_rti_Timer_continueOnSuspend__C                     
00022a5c  ti_sysbios_utils_Load_Module__id__C                                  
00022a5e  ti_sysbios_utils_Load_Module__loggerDefined__C                       
00022a60  ti_sysbios_utils_Load_autoAddTasks__C                                
00022a62  ti_sysbios_utils_Load_updateInIdle__C                                
00022a64  xdc_runtime_Core_Module__id__C                                       
00022a66  xdc_runtime_Error_Module__loggerDefined__C                           
00022a68  xdc_runtime_Error_maxDepth__C                                        
00022a6a  xdc_runtime_LoggerBuf_Module__id__C                                  
00022a6c  xdc_runtime_LoggerBuf_filterByLevel__C                               
00022a6e  xdc_runtime_Main_Module__id__C                                       
00022a70  xdc_runtime_Main_Module__loggerDefined__C                            
00022a72  xdc_runtime_Memory_Module__id__C                                     
00022a74  xdc_runtime_Text_charCnt__C                                          
00022a76  xdc_runtime_Text_isLoaded__C                                         
00022a78  xdc_runtime_Text_registryModsLastId__C                               
00022a7a  xdc_runtime_Text_unnamedModsLastId__C                                
00022a80  __TI_static_base__                                                   
00022fa0  __TI_Handler_Table_Base                                              
00022fac  __TI_Handler_Table_Limit                                             
00022fd8  __TI_CINIT_Base                                                      
00023008  __TI_CINIT_Limit                                                     
08000000  __start___llvm_prf_cnts                                              
08000000  __stop___llvm_prf_cnts                                               
08000000  ti_sysbios_heaps_HeapMem_Instance_State_0_buf__A                     
08008000  xdc_runtime_LoggerBuf_Instance_State_0_entryArr__A                   
08009900  ti_sysbios_family_arm_exc_Exception_Module_State_0_excStack_0__A     
0800a900  edmaDbg                                                              
0800ade8  gCalibDataStorage                                                    
0800b248  ti_sysbios_knl_Task_Instance_State_0_stack__A                        
0800b568  gCLI                                                                 
0800b710  gGPIOMCB                                                             
0800b8a4  __CIOBUF_                                                            
0800b9c4  gMMWave_MCB                                                          
0800bac4  __TI_tmpnams                                                         
0800bb64  gObjDetObj                                                           
0800bb68  gHSIHeaderMCB                                                        
0800bbf8  gEsmMCB                                                              
0800bc68  gMmwDemoFlash                                                        
0800bc74  gMMWave_DualcoreMCB                                                  
0800bc7c  parmbuf                                                              
0800bc84  ti_sysbios_knl_Task_Instance_State_0_hookEnv__A                      
0800bc88  gRFLdoBypassCfg                                                      
0800bc8c  gtsIdx                                                               
0800bc90  gts                                                                  
0800be20  gMmwMssMCB                                                           
0800c650  rl_txMsg                                                             
0800c750  rl_rxMsg                                                             
0800ca38  gCLI_mmwave_freq_scale_factor                                        
0800ca40  gCLIMMWaveOpenCfg                                                    
0800ca68  gCLIMMWaveExtensionTable                                             
0800cb10  gCLIMMWaveControlCfg                                                 
0800cbdc  partInfoStringArray                                                  
0800cda0  ti_sysbios_family_arm_v7r_vim_Hwi_Module_State_0_dispatchTable__A    
0800cfa0  _ftable                                                              
0800d090  ti_sysbios_utils_Load_Module__state__V                               
0800d128  ti_sysbios_knl_Task_Module_State_0_readyQ__A                         
0800d1a8  _device                                                              
0800d220  gCBUFFHwAttribute                                                    
0800d298  ti_sysbios_knl_Task_Object__table__V                                 
0800d2f4  gUartSciHwCfg                                                        
0800d34c  _stream                                                              
0800d39c  gMailboxMCB                                                          
0800d3ec  ti_sysbios_knl_Task_Module__state__V                                 
0800d434  SOC_TranslateAddr_LUT                                                
0800d474  ti_sysbios_gates_GateMutex_Object__table__V                          
0800d4b4  ti_sysbios_timers_rti_Timer_Object__table__V                         
0800d4f0  gCBUFFInterfaceFxn                                                   
0800d528  ti_sysbios_family_arm_v7r_vim_Hwi_Module__state__V                   
0800d55c  gHWAHwCfg                                                            
0800d58c  ti_sysbios_family_arm_v7r_vim_Hwi_Object__table__V                   
0800d5b8  ti_sysbios_knl_Clock_Module__state__V                                
0800d5e4  gUartSciFxnTable                                                     
0800d60c  UART_config                                                          
0800d630  gDPC_ObjDetRangeHWACfg                                               
0800d654  ti_sysbios_BIOS_Module__state__V                                     
0800d678  xdc_runtime_LoggerBuf_Object__table__V                               
0800d69c  gHWADriverPtr                                                        
0800d6a0  gSOCHwAttrib                                                         
0800d6c0  ti_sysbios_knl_Clock_Object__table__V                                
0800d6e0  xdc_runtime_Error_IgnoreBlock                                        
0800d700  xdc_runtime_System_Module_State_0_atexitHandlers__A                  
0800d720  ti_sysbios_utils_Load_Module_State_0_taskEnv__A                      
0800d73c  ADCBuf_config                                                        
0800d754  gInterleavedTransferFxn                                              
0800d76c  gMailboxMssBssHwCfg                                                  
0800d784  gMailboxMssDssHwCfg                                                  
0800d79c  gMultipleChirpNonInterleavedTransferFxn                              
0800d7b4  gNonInterleavedTransferFxn                                           
0800d7cc  ti_sysbios_heaps_HeapMem_Object__table__V                            
0800d7e4  ti_sysbios_timers_rti_Timer_Module_State_0_device__A                 
0800d7fc  gDPMRemoteTable                                                      
0800d810  ti_sysbios_family_arm_exc_Exception_Module__state__V                 
0800d824  gHwaEDMAChanMapping                                                  
0800d834  gQSPIHwCfg                                                           
0800d844  __TI_ft_end                                                          
0800d848  __aeabi_stdin                                                        
0800d84c  __aeabi_stdout                                                       
0800d850  __aeabi_stderr                                                       
0800d854  ti_sysbios_timers_rti_Timer_Module_State_0_intFreqs__A               
0800d864  ti_sysbios_timers_rti_Timer_Module__state__V                         
0800d874  __TI_cleanup_ptr                                                     
0800d878  __TI_dtors_ptr                                                       
0800d87c  __TI_enable_exit_profile_output                                      
0800d880  gESMHwCfgAttrs                                                       
0800d88c  ti_sysbios_family_arm_v7a_Pmu_Module__state__V                       
0800d898  ti_sysbios_knl_Task_Module__root__V                                  
0800d8a4  _lock                                                                
0800d8a8  _unlock                                                              
0800d8ac  MmwDemo_RFParserHwCfg                                                
0800d8b4  QSPIFlash_deviceFxnTbl_macronix                                      
0800d8bc  QSPIFlash_deviceFxnTbl_spansion                                      
0800d8c4  gDPMHwAttrib                                                         
0800d8cc  gGPIOHwAtrrib                                                        
0800d8d4  ti_sysbios_family_arm_v7r_vim_Hwi_Module__root__V                    
0800d8dc  ti_sysbios_gates_GateHwi_Module__root__V                             
0800d8e4  ti_sysbios_gates_GateMutex_Module__root__V                           
0800d8ec  ti_sysbios_hal_Hwi_Object__table__V                                  
0800d8f4  ti_sysbios_heaps_HeapMem_Module__root__V                             
0800d8fc  ti_sysbios_knl_Queue_Module__root__V                                 
0800d904  ti_sysbios_knl_Semaphore_Module__root__V                             
0800d90c  ti_sysbios_timers_rti_Timer_Module_State_0_handles__A                
0800d914  xdc_runtime_LoggerBuf_Module__root__V                                
0800d91c  xdc_runtime_Registry_Module__state__V                                
0800d924  xdc_runtime_Startup_Module__state__V                                 
0800d92c  xdc_runtime_System_Module__state__V                                  
0800d934  xdc_runtime_LoggerBuf_Module__state__V                               
0800d93a  ti_sysbios_family_arm_exc_Exception_Module_State_0_excActive__A      
0800d93c  gQSPIFlashHwCfg                                                      
0800d944  gCRCRegister                                                         
0800d948  gDPM                                                                 
0800d94c  regionId                                                             
0800d950  gPinmuxRegs                                                          
0800d954  gQSPIDriverPtr                                                       
0800d95c  errno                                                                
0800d960  main_func_sp                                                         
0800d968  ti_sysbios_family_arm_a15_TimestampProvider_Module__state__V         
0800d96c  ti_sysbios_family_arm_exc_Exception_Module_State_0_excContext__A     
0800d970  ti_sysbios_family_arm_exc_Exception_Module_State_0_excStackBuffers__A
0800d974  ti_sysbios_family_arm_exc_Exception_Module_State_0_excStack__A       
0800d978  ti_sysbios_gates_GateHwi_Object__table__V                            
0800d97c  ti_sysbios_heaps_HeapBuf_Module__state__V                            
0800d980  ti_sysbios_knl_Task_Module_State_0_idleTask__A                       
0800d984  ti_sysbios_utils_Load_Module_State_0_runningTask__A                  
0800d988  ti_sysbios_utils_Load_Module_State_0_taskStartTime__A                
0800d98c  xdc_runtime_Memory_Module__state__V                                  
0800d990  xdc_runtime_Error_Module__state__V                                   
0800d992  xdc_runtime_Main_Module__root__V                                     
0800d994  gDPCTCM                                                              
0800e998  ti_sysbios_family_arm_v7r_vim_Hwi_Module_State_0_fiqStack__A         
0800f198  __stack                                                              
0800f998  __STACK_END                                                          
51000000  gMmwL3                                                               
fffffdec  ti_sysbios_family_arm_v7r_vim_Hwi_vim                                
ffffffff  __TI_pprof_out_hndl                                                  
ffffffff  __TI_prof_data_size                                                  
ffffffff  __TI_prof_data_start                                                 
ffffffff  __binit__                                                            
ffffffff  __c_args__                                                           
ffffffff  binit                                                                
UNDEFED   SHT$$INIT_ARRAY$$Base                                                
UNDEFED   SHT$$INIT_ARRAY$$Limit                                               

[1188 symbols]
